

Microchip MPLAB XC8 Assembler V2.10 build 88905656 
                                                                                               Fri Jan 03 00:28:35 2020

Microchip MPLAB XC8 C Compiler v2.10 (Free license) build 20190730164152 Og1 
     1                           	processor	18F45K22
     2                           	fnconf	rparam,??,?,0
     3                           	opt	pw 120
     4                           	opt	flic
     5                           	psect	nvCOMRAM,global,class=COMRAM,space=1,delta=1,noexec
     6                           	psect	cinit,global,reloc=2,class=CODE,delta=1
     7                           	psect	bssCOMRAM,global,class=COMRAM,space=1,delta=1,noexec
     8                           	psect	cstackCOMRAM,global,class=COMRAM,space=1,delta=1,noexec
     9                           	psect	text0,global,reloc=2,class=CODE,delta=1
    10                           	psect	text1,global,reloc=2,class=CODE,delta=1,inline
    11                           	psect	text2,global,reloc=2,class=CODE,delta=1,inline
    12                           	psect	text3,global,reloc=2,class=CODE,delta=1
    13                           	psect	text4,global,reloc=2,class=CODE,delta=1
    14                           	psect	text5,global,reloc=2,class=CODE,delta=1,inline
    15                           	psect	text6,global,reloc=2,class=CODE,delta=1,group=2
    16                           	psect	text7,global,reloc=2,class=CODE,delta=1
    17                           	psect	text8,global,reloc=2,class=CODE,delta=1
    18                           	psect	text9,global,reloc=2,class=CODE,delta=1
    19                           	psect	text10,global,reloc=2,class=CODE,delta=1
    20                           	psect	text11,global,reloc=2,class=CODE,delta=1
    21                           	psect	text12,global,reloc=2,class=CODE,delta=1
    22                           	psect	text13,global,reloc=2,class=CODE,delta=1
    23                           	psect	intsave_regs,global,class=BIGRAM,space=1,delta=1,noexec
    24                           	psect	rparam,global,class=COMRAM,space=1,delta=1,noexec
    25  0000                     
    26                           ; Version 2.10
    27                           ; Generated 31/07/2019 GMT
    28                           ; 
    29                           ; Copyright © 2019, Microchip Technology Inc. and its subsidiaries ("Microchip")
    30                           ; All rights reserved.
    31                           ; 
    32                           ; This software is developed by Microchip Technology Inc. and its subsidiaries ("Microch
      +                          ip").
    33                           ; 
    34                           ; Redistribution and use in source and binary forms, with or without modification, are
    35                           ; permitted provided that the following conditions are met:
    36                           ; 
    37                           ;     1. Redistributions of source code must retain the above copyright notice, this lis
      +                          t of
    38                           ;        conditions and the following disclaimer.
    39                           ; 
    40                           ;     2. Redistributions in binary form must reproduce the above copyright notice, this 
      +                          list
    41                           ;        of conditions and the following disclaimer in the documentation and/or other
    42                           ;        materials provided with the distribution.
    43                           ; 
    44                           ;     3. Microchip's name may not be used to endorse or promote products derived from th
      +                          is
    45                           ;        software without specific prior written permission.
    46                           ; 
    47                           ; THIS SOFTWARE IS PROVIDED BY MICROCHIP "AS IS" AND ANY EXPRESS OR IMPLIED WARRANTIES,
    48                           ; INCLUDING, BUT NOT LIMITED TO, THE IMPLIED WARRANTIES OF MERCHANTABILITY AND FITNESS F
      +                          OR
    49                           ; PURPOSE ARE DISCLAIMED.  IN NO EVENT SHALL MICROCHIP BE LIABLE FOR ANY DIRECT, INDIREC
      +                          T,
    50                           ; INCIDENTAL, SPECIAL, EXEMPLARY, OR CONSEQUENTIAL DAMAGES (INCLUDING BUT NOT LIMITED TO
    51                           ; PROCUREMENT OF SUBSTITUTE GOODS OR SERVICES; LOSS OF USE, DATA OR PROFITS; OR BUSINESS
    52                           ; INTERRUPTION) HOWSOEVER CAUSED AND ON ANY THEORY OF LIABILITY, WHETHER IN CONTRACT, ST
      +                          RICT
    53                           ; LIABILITY, OR TORT (INCLUDING NEGLIGENCE OR OTHERWISE) ARISING IN ANY WAY OUT OF THE U
      +                          SE OF
    54                           ; THIS SOFTWARE, EVEN IF ADVISED OF THE POSSIBILITY OF SUCH DAMAGE.
    55                           ; 
    56                           ; 
    57                           ; Code-generator required, PIC18F45K22 Definitions
    58                           ; 
    59                           ; SFR Addresses
    60  0000                     
    61 ;; Function _EUSART2_DefaultFramingErrorHandler is unused but had its address taken
    62  0000                     
    63 ;; Function _EUSART2_DefaultOverrunErrorHandler is unused but had its address taken
    64  0000                     
    65 ;; Function _EUSART2_DefaultErrorHandler is unused but had its address taken
    66  0000                     
    67                           	psect	nvCOMRAM
    68  000024                     __pnvCOMRAM:
    69                           	opt callstack 0
    70  000024                     _EUSART2_ErrorHandler:
    71                           	opt callstack 0
    72  000024                     	ds	2
    73  000026                     _EUSART2_OverrunErrorHandler:
    74                           	opt callstack 0
    75  000026                     	ds	2
    76  000028                     _EUSART2_FramingErrorHandler:
    77                           	opt callstack 0
    78  000028                     	ds	2
    79  0000                     _ANSELA	set	3896
    80  0000                     _ANSELE	set	3900
    81  0000                     _ANSELB	set	3897
    82  0000                     _ANSELC	set	3898
    83  0000                     _ANSELD	set	3899
    84  0000                     _INTCONbits	set	4082
    85  0000                     _INTCON2bits	set	4081
    86  0000                     _WPUB	set	3937
    87  0000                     _TRISD	set	3989
    88  0000                     _TRISC	set	3988
    89  0000                     _TRISB	set	3987
    90  0000                     _TRISA	set	3986
    91  0000                     _TRISE	set	3990
    92  0000                     _LATC	set	3979
    93  0000                     _LATB	set	3978
    94  0000                     _LATA	set	3977
    95  0000                     _LATD	set	3980
    96  0000                     _LATE	set	3981
    97  0000                     _OSCTUNE	set	3995
    98  0000                     _OSCCON2	set	4050
    99  0000                     _OSCCON	set	4051
   100  0000                     _TXREG2	set	3955
   101  0000                     _RCREG2	set	3956
   102  0000                     _RCSTA2bits	set	3953
   103  0000                     _TXSTA2bits	set	3954
   104  0000                     _PIR3bits	set	4004
   105  0000                     _SPBRGH2	set	3958
   106  0000                     _SPBRG2	set	3957
   107  0000                     _TXSTA2	set	3954
   108  0000                     _RCSTA2	set	3953
   109  0000                     _BAUDCON2	set	3952
   110                           
   111                           ; #config settings
   112  0000                     
   113                           	psect	cinit
   114  007C9A                     __pcinit:
   115                           	opt callstack 0
   116  007C9A                     start_initialization:
   117                           	opt callstack 0
   118  007C9A                     __initialization:
   119                           	opt callstack 0
   120                           
   121                           ; Clear objects allocated to COMRAM (15 bytes)
   122  007C9A  EE00  F015         	lfsr	0,__pbssCOMRAM
   123  007C9E  0E0F               	movlw	15
   124  007CA0                     clear_0:
   125  007CA0  6AEE               	clrf	postinc0,c
   126  007CA2  06E8               	decf	wreg,f,c
   127  007CA4  E1FD               	bnz	clear_0
   128  007CA6                     end_of_initialization:
   129                           	opt callstack 0
   130  007CA6                     __end_of__initialization:
   131                           	opt callstack 0
   132  007CA6  0E00               	movlw	low (__Lmediumconst shr (0+16))
   133  007CA8  6EF8               	movwf	tblptru,c
   134  007CAA  0100               	movlb	0
   135  007CAC  EF0F  F03F         	goto	_main	;jump to C main() function
   136                           
   137                           	psect	bssCOMRAM
   138  000015                     __pbssCOMRAM:
   139                           	opt callstack 0
   140  000015                     _eusart2RxLastError:
   141                           	opt callstack 0
   142  000015                     	ds	1
   143  000016                     _data:
   144                           	opt callstack 0
   145  000016                     	ds	14
   146                           
   147                           	psect	cstackCOMRAM
   148  000001                     __pcstackCOMRAM:
   149                           	opt callstack 0
   150  000001                     EUSART2_Write@txData:
   151                           	opt callstack 0
   152  000001                     EUSART2_SetFramingErrorHandler@interruptHandler:
   153                           	opt callstack 0
   154  000001                     EUSART2_SetOverrunErrorHandler@interruptHandler:
   155                           	opt callstack 0
   156  000001                     EUSART2_SetErrorHandler@interruptHandler:
   157                           	opt callstack 0
   158  000001                     memset@dest:
   159                           	opt callstack 0
   160                           
   161                           ; 2 bytes @ 0x0
   162  000001                     	ds	1
   163  000002                     send_pad@i:
   164                           	opt callstack 0
   165  000002                     send_buf@i:
   166                           	opt callstack 0
   167                           
   168                           ; 2 bytes @ 0x1
   169  000002                     	ds	1
   170  000003                     memset@c:
   171                           	opt callstack 0
   172                           
   173                           ; 2 bytes @ 0x2
   174  000003                     	ds	2
   175  000005                     memset@n:
   176                           	opt callstack 0
   177                           
   178                           ; 2 bytes @ 0x4
   179  000005                     	ds	2
   180  000007                     ??_memset:
   181                           
   182                           ; 1 bytes @ 0x6
   183  000007                     	ds	2
   184  000009                     memset@k:
   185                           	opt callstack 0
   186                           
   187                           ; 2 bytes @ 0x8
   188  000009                     	ds	2
   189  00000B                     memset@s:
   190                           	opt callstack 0
   191                           
   192                           ; 2 bytes @ 0xA
   193  00000B                     	ds	2
   194  00000D                     fill@x:
   195                           	opt callstack 0
   196                           
   197                           ; 2 bytes @ 0xC
   198  00000D                     	ds	2
   199  00000F                     ??_fill:
   200                           
   201                           ; 1 bytes @ 0xE
   202  00000F                     	ds	1
   203  000010                     fill@i:
   204                           	opt callstack 0
   205                           
   206                           ; 2 bytes @ 0xF
   207  000010                     	ds	2
   208  000012                     ??_main:
   209                           
   210                           ; 1 bytes @ 0x11
   211  000012                     	ds	2
   212  000014                     main@index:
   213                           	opt callstack 0
   214                           
   215                           ; 1 bytes @ 0x13
   216  000014                     	ds	1
   217                           
   218 ;;
   219 ;;Main: autosize = 0, tempsize = 2, incstack = 0, save=0
   220 ;;
   221 ;; *************** function _main *****************
   222 ;; Defined at:
   223 ;;		line 32 in file "main.c"
   224 ;; Parameters:    Size  Location     Type
   225 ;;		None
   226 ;; Auto vars:     Size  Location     Type
   227 ;;  index           1   19[COMRAM] unsigned char 
   228 ;; Return value:  Size  Location     Type
   229 ;;                  1    wreg      void 
   230 ;; Registers used:
   231 ;;		wreg, fsr2l, fsr2h, status,2, status,0, cstack
   232 ;; Tracked objects:
   233 ;;		On entry : 0/0
   234 ;;		On exit  : 0/0
   235 ;;		Unchanged: 0/0
   236 ;; Data sizes:     COMRAM   BANK0   BANK1   BANK2   BANK3   BANK4   BANK5
   237 ;;      Params:         0       0       0       0       0       0       0
   238 ;;      Locals:         1       0       0       0       0       0       0
   239 ;;      Temps:          2       0       0       0       0       0       0
   240 ;;      Totals:         3       0       0       0       0       0       0
   241 ;;Total ram usage:        3 bytes
   242 ;; Hardware stack levels required when called:    3
   243 ;; This function calls:
   244 ;;		_EUSART2_is_tx_done
   245 ;;		_SYSTEM_Initialize
   246 ;;		_fill
   247 ;;		_send_buf
   248 ;;		_send_pad
   249 ;; This function is called by:
   250 ;;		Startup code after reset
   251 ;; This function uses a non-reentrant model
   252 ;;
   253                           
   254                           	psect	text0
   255  007E1E                     __ptext0:
   256                           	opt callstack 0
   257  007E1E                     _main:
   258                           	opt callstack 28
   259  007E1E                     
   260                           ;main.c: 34:     SYSTEM_Initialize();
   261  007E1E  EC31  F03E         	call	_SYSTEM_Initialize	;wreg free
   262  007E22                     
   263                           ;main.c: 35:     uint8_t index = 0;
   264  007E22  0E00               	movlw	0
   265  007E24  6E14               	movwf	main@index^0,c
   266  007E26                     l1119:
   267                           
   268                           ;main.c: 37:     {;main.c: 38:         send_pad();
   269  007E26  EC97  F03E         	call	_send_pad	;wreg free
   270  007E2A                     
   271                           ;main.c: 39:         fill(index);
   272  007E2A  C014  F00D         	movff	main@index,fill@x
   273  007E2E  6A0E               	clrf	(fill@x+1)^0,c
   274  007E30  ECE1  F03E         	call	_fill	;wreg free
   275  007E34                     
   276                           ;main.c: 40:         send_buf();
   277  007E34  ECB9  F03E         	call	_send_buf	;wreg free
   278  007E38                     
   279                           ;main.c: 41:         send_pad();
   280  007E38  EC97  F03E         	call	_send_pad	;wreg free
   281  007E3C                     l1127:
   282  007E3C  EC38  F03E         	call	_EUSART2_is_tx_done	;wreg free
   283  007E40  0900               	iorlw	0
   284  007E42  B4D8               	btfsc	status,2,c
   285  007E44  EF26  F03F         	goto	u251
   286  007E48  EF28  F03F         	goto	u250
   287  007E4C                     u251:
   288  007E4C  EF1E  F03F         	goto	l1127
   289  007E50                     u250:
   290  007E50                     
   291                           ;main.c: 43:         if(index == 14)
   292  007E50  0E0E               	movlw	14
   293  007E52  1814               	xorwf	main@index^0,w,c
   294  007E54  A4D8               	btfss	status,2,c
   295  007E56  EF2F  F03F         	goto	u261
   296  007E5A  EF31  F03F         	goto	u260
   297  007E5E                     u261:
   298  007E5E  EF35  F03F         	goto	l1133
   299  007E62                     u260:
   300  007E62                     
   301                           ;main.c: 44:             index = 0;
   302  007E62  0E00               	movlw	0
   303  007E64  6E14               	movwf	main@index^0,c
   304  007E66  EF36  F03F         	goto	l1135
   305  007E6A                     l1133:
   306  007E6A  2A14               	incf	main@index^0,f,c
   307  007E6C                     l1135:
   308                           
   309                           ;main.c: 47:         _delay((unsigned long)((1000)*(1000000/4000.0)));
   310  007E6C  0E02               	movlw	2
   311  007E6E  6E13               	movwf	(??_main+1)^0,c
   312  007E70  0E45               	movlw	69
   313  007E72  6E12               	movwf	??_main^0,c
   314  007E74  0EAA               	movlw	170
   315  007E76                     u277:
   316  007E76  2EE8               	decfsz	wreg,f,c
   317  007E78  D7FE               	bra	u277
   318  007E7A  2E12               	decfsz	??_main^0,f,c
   319  007E7C  D7FC               	bra	u277
   320  007E7E  2E13               	decfsz	(??_main+1)^0,f,c
   321  007E80  D7FA               	bra	u277
   322  007E82  EF13  F03F         	goto	l1119
   323  007E86  EF00  F000         	goto	start
   324  007E8A                     __end_of_main:
   325                           	opt callstack 0
   326                           
   327 ;; *************** function _send_pad *****************
   328 ;; Defined at:
   329 ;;		line 14 in file "main.c"
   330 ;; Parameters:    Size  Location     Type
   331 ;;		None
   332 ;; Auto vars:     Size  Location     Type
   333 ;;  i               2    1[COMRAM] int 
   334 ;; Return value:  Size  Location     Type
   335 ;;                  1    wreg      void 
   336 ;; Registers used:
   337 ;;		wreg, status,2, status,0, cstack
   338 ;; Tracked objects:
   339 ;;		On entry : 0/0
   340 ;;		On exit  : 0/0
   341 ;;		Unchanged: 0/0
   342 ;; Data sizes:     COMRAM   BANK0   BANK1   BANK2   BANK3   BANK4   BANK5
   343 ;;      Params:         0       0       0       0       0       0       0
   344 ;;      Locals:         2       0       0       0       0       0       0
   345 ;;      Temps:          0       0       0       0       0       0       0
   346 ;;      Totals:         2       0       0       0       0       0       0
   347 ;;Total ram usage:        2 bytes
   348 ;; Hardware stack levels used:    1
   349 ;; Hardware stack levels required when called:    1
   350 ;; This function calls:
   351 ;;		_EUSART2_Write
   352 ;;		_EUSART2_is_tx_done
   353 ;; This function is called by:
   354 ;;		_main
   355 ;; This function uses a non-reentrant model
   356 ;;
   357                           
   358                           	psect	text1
   359  007D2E                     __ptext1:
   360                           	opt callstack 0
   361  007D2E                     _send_pad:
   362                           	opt callstack 29
   363  007D2E                     
   364                           ;main.c: 16:     for(int i=0;i<5;++i)
   365  007D2E  0E00               	movlw	0
   366  007D30  6E03               	movwf	(send_pad@i+1)^0,c
   367  007D32  0E00               	movlw	0
   368  007D34  6E02               	movwf	send_pad@i^0,c
   369  007D36                     l987:
   370                           
   371                           ;main.c: 17:     {;main.c: 18:         EUSART2_Write((uint8_t)0);
   372  007D36  0E00               	movlw	0
   373  007D38  EC42  F03E         	call	_EUSART2_Write
   374  007D3C                     
   375                           ;main.c: 19:     }
   376  007D3C  4A02               	infsnz	send_pad@i^0,f,c
   377  007D3E  2A03               	incf	(send_pad@i+1)^0,f,c
   378  007D40  BE03               	btfsc	(send_pad@i+1)^0,7,c
   379  007D42  EFAC  F03E         	goto	u111
   380  007D46  5003               	movf	(send_pad@i+1)^0,w,c
   381  007D48  E109               	bnz	u110
   382  007D4A  0E05               	movlw	5
   383  007D4C  5C02               	subwf	send_pad@i^0,w,c
   384  007D4E  A0D8               	btfss	status,0,c
   385  007D50  EFAC  F03E         	goto	u111
   386  007D54  EFAE  F03E         	goto	u110
   387  007D58                     u111:
   388  007D58  EF9B  F03E         	goto	l987
   389  007D5C                     u110:
   390  007D5C                     l993:
   391  007D5C  EC38  F03E         	call	_EUSART2_is_tx_done	;wreg free
   392  007D60  0900               	iorlw	0
   393  007D62  B4D8               	btfsc	status,2,c
   394  007D64  EFB6  F03E         	goto	u121
   395  007D68  EFB8  F03E         	goto	u120
   396  007D6C                     u121:
   397  007D6C  EFAE  F03E         	goto	l993
   398  007D70                     u120:
   399  007D70  0012               	return		;funcret
   400  007D72                     __end_of_send_pad:
   401                           	opt callstack 0
   402                           
   403 ;; *************** function _send_buf *****************
   404 ;; Defined at:
   405 ;;		line 23 in file "main.c"
   406 ;; Parameters:    Size  Location     Type
   407 ;;		None
   408 ;; Auto vars:     Size  Location     Type
   409 ;;  i               2    1[COMRAM] int 
   410 ;; Return value:  Size  Location     Type
   411 ;;                  1    wreg      void 
   412 ;; Registers used:
   413 ;;		wreg, fsr2l, fsr2h, status,2, status,0, cstack
   414 ;; Tracked objects:
   415 ;;		On entry : 0/0
   416 ;;		On exit  : 0/0
   417 ;;		Unchanged: 0/0
   418 ;; Data sizes:     COMRAM   BANK0   BANK1   BANK2   BANK3   BANK4   BANK5
   419 ;;      Params:         0       0       0       0       0       0       0
   420 ;;      Locals:         2       0       0       0       0       0       0
   421 ;;      Temps:          0       0       0       0       0       0       0
   422 ;;      Totals:         2       0       0       0       0       0       0
   423 ;;Total ram usage:        2 bytes
   424 ;; Hardware stack levels used:    1
   425 ;; Hardware stack levels required when called:    1
   426 ;; This function calls:
   427 ;;		_EUSART2_Write
   428 ;;		_EUSART2_is_tx_done
   429 ;; This function is called by:
   430 ;;		_main
   431 ;; This function uses a non-reentrant model
   432 ;;
   433                           
   434                           	psect	text2
   435  007D72                     __ptext2:
   436                           	opt callstack 0
   437  007D72                     _send_buf:
   438                           	opt callstack 29
   439  007D72                     
   440                           ;main.c: 25:     for(int i=0;i<14;++i)
   441  007D72  0E00               	movlw	0
   442  007D74  6E03               	movwf	(send_buf@i+1)^0,c
   443  007D76  0E00               	movlw	0
   444  007D78  6E02               	movwf	send_buf@i^0,c
   445  007D7A                     l1001:
   446                           
   447                           ;main.c: 26:     {;main.c: 27:         EUSART2_Write(data[i]);
   448  007D7A  0E16               	movlw	low _data
   449  007D7C  2402               	addwf	send_buf@i^0,w,c
   450  007D7E  6ED9               	movwf	fsr2l,c
   451  007D80  0E00               	movlw	high _data
   452  007D82  2003               	addwfc	(send_buf@i+1)^0,w,c
   453  007D84  6EDA               	movwf	fsr2h,c
   454  007D86  50DF               	movf	indf2,w,c
   455  007D88  EC42  F03E         	call	_EUSART2_Write
   456  007D8C                     
   457                           ;main.c: 28:     }
   458  007D8C  4A02               	infsnz	send_buf@i^0,f,c
   459  007D8E  2A03               	incf	(send_buf@i+1)^0,f,c
   460  007D90  BE03               	btfsc	(send_buf@i+1)^0,7,c
   461  007D92  EFD4  F03E         	goto	u131
   462  007D96  5003               	movf	(send_buf@i+1)^0,w,c
   463  007D98  E109               	bnz	u130
   464  007D9A  0E0E               	movlw	14
   465  007D9C  5C02               	subwf	send_buf@i^0,w,c
   466  007D9E  A0D8               	btfss	status,0,c
   467  007DA0  EFD4  F03E         	goto	u131
   468  007DA4  EFD6  F03E         	goto	u130
   469  007DA8                     u131:
   470  007DA8  EFBD  F03E         	goto	l1001
   471  007DAC                     u130:
   472  007DAC                     l1007:
   473  007DAC  EC38  F03E         	call	_EUSART2_is_tx_done	;wreg free
   474  007DB0  0900               	iorlw	0
   475  007DB2  B4D8               	btfsc	status,2,c
   476  007DB4  EFDE  F03E         	goto	u141
   477  007DB8  EFE0  F03E         	goto	u140
   478  007DBC                     u141:
   479  007DBC  EFD6  F03E         	goto	l1007
   480  007DC0                     u140:
   481  007DC0  0012               	return		;funcret
   482  007DC2                     __end_of_send_buf:
   483                           	opt callstack 0
   484                           
   485 ;; *************** function _EUSART2_is_tx_done *****************
   486 ;; Defined at:
   487 ;;		line 104 in file "mcc_generated_files/eusart2.c"
   488 ;; Parameters:    Size  Location     Type
   489 ;;		None
   490 ;; Auto vars:     Size  Location     Type
   491 ;;		None
   492 ;; Return value:  Size  Location     Type
   493 ;;                  1    wreg      _Bool 
   494 ;; Registers used:
   495 ;;		wreg
   496 ;; Tracked objects:
   497 ;;		On entry : 0/0
   498 ;;		On exit  : 0/0
   499 ;;		Unchanged: 0/0
   500 ;; Data sizes:     COMRAM   BANK0   BANK1   BANK2   BANK3   BANK4   BANK5
   501 ;;      Params:         0       0       0       0       0       0       0
   502 ;;      Locals:         0       0       0       0       0       0       0
   503 ;;      Temps:          0       0       0       0       0       0       0
   504 ;;      Totals:         0       0       0       0       0       0       0
   505 ;;Total ram usage:        0 bytes
   506 ;; Hardware stack levels used:    1
   507 ;; This function calls:
   508 ;;		Nothing
   509 ;; This function is called by:
   510 ;;		_send_pad
   511 ;;		_send_buf
   512 ;;		_main
   513 ;; This function uses a non-reentrant model
   514 ;;
   515                           
   516                           	psect	text3
   517  007C70                     __ptext3:
   518                           	opt callstack 0
   519  007C70                     _EUSART2_is_tx_done:
   520                           	opt callstack 29
   521  007C70                     
   522                           ;mcc_generated_files/eusart2.c: 106:     return TXSTA2bits.TRMT;
   523  007C70  B272               	btfsc	114,1,c	;volatile
   524  007C72  EF3D  F03E         	goto	u11
   525  007C76  EF40  F03E         	goto	u10
   526  007C7A                     u11:
   527  007C7A  0E01               	movlw	1
   528  007C7C  EF41  F03E         	goto	u16
   529  007C80                     u10:
   530  007C80  0E00               	movlw	0
   531  007C82                     u16:
   532  007C82  0012               	return		;funcret
   533  007C84                     __end_of_EUSART2_is_tx_done:
   534                           	opt callstack 0
   535                           
   536 ;; *************** function _EUSART2_Write *****************
   537 ;; Defined at:
   538 ;;		line 132 in file "mcc_generated_files/eusart2.c"
   539 ;; Parameters:    Size  Location     Type
   540 ;;  txData          1    wreg     unsigned char 
   541 ;; Auto vars:     Size  Location     Type
   542 ;;  txData          1    0[COMRAM] unsigned char 
   543 ;; Return value:  Size  Location     Type
   544 ;;                  1    wreg      void 
   545 ;; Registers used:
   546 ;;		wreg
   547 ;; Tracked objects:
   548 ;;		On entry : 0/0
   549 ;;		On exit  : 0/0
   550 ;;		Unchanged: 0/0
   551 ;; Data sizes:     COMRAM   BANK0   BANK1   BANK2   BANK3   BANK4   BANK5
   552 ;;      Params:         0       0       0       0       0       0       0
   553 ;;      Locals:         1       0       0       0       0       0       0
   554 ;;      Temps:          0       0       0       0       0       0       0
   555 ;;      Totals:         1       0       0       0       0       0       0
   556 ;;Total ram usage:        1 bytes
   557 ;; Hardware stack levels used:    1
   558 ;; This function calls:
   559 ;;		Nothing
   560 ;; This function is called by:
   561 ;;		_send_pad
   562 ;;		_send_buf
   563 ;;		_putch
   564 ;; This function uses a non-reentrant model
   565 ;;
   566                           
   567                           	psect	text4
   568  007C84                     __ptext4:
   569                           	opt callstack 0
   570  007C84                     _EUSART2_Write:
   571                           	opt callstack 29
   572                           
   573                           ;incstack = 0
   574                           ;EUSART2_Write@txData stored from wreg
   575  007C84  6E01               	movwf	EUSART2_Write@txData^0,c
   576  007C86                     l67:
   577                           
   578                           ;mcc_generated_files/eusart2.c: 134:     while(0 == PIR3bits.TX2IF)
   579  007C86  A8A4               	btfss	164,4,c	;volatile
   580  007C88  EF48  F03E         	goto	u21
   581  007C8C  EF4A  F03E         	goto	u20
   582  007C90                     u21:
   583  007C90  EF43  F03E         	goto	l67
   584  007C94                     u20:
   585  007C94                     
   586                           ;mcc_generated_files/eusart2.c: 138:     TXREG2 = txData;
   587  007C94  C001  FF73         	movff	EUSART2_Write@txData,3955	;volatile
   588  007C98  0012               	return		;funcret
   589  007C9A                     __end_of_EUSART2_Write:
   590                           	opt callstack 0
   591                           
   592 ;; *************** function _fill *****************
   593 ;; Defined at:
   594 ;;		line 5 in file "main.c"
   595 ;; Parameters:    Size  Location     Type
   596 ;;  x               2   12[COMRAM] int 
   597 ;; Auto vars:     Size  Location     Type
   598 ;;  i               2   15[COMRAM] int 
   599 ;; Return value:  Size  Location     Type
   600 ;;                  1    wreg      void 
   601 ;; Registers used:
   602 ;;		wreg, fsr2l, fsr2h, status,2, status,0, cstack
   603 ;; Tracked objects:
   604 ;;		On entry : 0/0
   605 ;;		On exit  : 0/0
   606 ;;		Unchanged: 0/0
   607 ;; Data sizes:     COMRAM   BANK0   BANK1   BANK2   BANK3   BANK4   BANK5
   608 ;;      Params:         2       0       0       0       0       0       0
   609 ;;      Locals:         2       0       0       0       0       0       0
   610 ;;      Temps:          1       0       0       0       0       0       0
   611 ;;      Totals:         5       0       0       0       0       0       0
   612 ;;Total ram usage:        5 bytes
   613 ;; Hardware stack levels used:    1
   614 ;; Hardware stack levels required when called:    1
   615 ;; This function calls:
   616 ;;		_memset
   617 ;; This function is called by:
   618 ;;		_main
   619 ;; This function uses a non-reentrant model
   620 ;;
   621                           
   622                           	psect	text5
   623  007DC2                     __ptext5:
   624                           	opt callstack 0
   625  007DC2                     _fill:
   626                           	opt callstack 29
   627  007DC2                     
   628                           ;main.c: 5: __attribute__((inline)) void fill(int x);main.c: 6: {;main.c: 7:     memset(
      +                          data, 1, sizeof(data));
   629  007DC2  0E16               	movlw	low _data
   630  007DC4  6E01               	movwf	memset@dest^0,c
   631  007DC6  0E00               	movlw	high _data
   632  007DC8  6E02               	movwf	(memset@dest+1)^0,c
   633  007DCA  0E00               	movlw	0
   634  007DCC  6E04               	movwf	(memset@c+1)^0,c
   635  007DCE  0E01               	movlw	1
   636  007DD0  6E03               	movwf	memset@c^0,c
   637  007DD2  0E00               	movlw	0
   638  007DD4  6E06               	movwf	(memset@n+1)^0,c
   639  007DD6  0E0E               	movlw	14
   640  007DD8  6E05               	movwf	memset@n^0,c
   641  007DDA  EC45  F03F         	call	_memset	;wreg free
   642  007DDE                     
   643                           ;main.c: 8:     for (int i=0;i<x;++i)
   644  007DDE  0E00               	movlw	0
   645  007DE0  6E11               	movwf	(fill@i+1)^0,c
   646  007DE2  0E00               	movlw	0
   647  007DE4  6E10               	movwf	fill@i^0,c
   648  007DE6  EFFF  F03E         	goto	l1113
   649  007DEA                     l1109:
   650                           
   651                           ;main.c: 9:     {;main.c: 10:         data[i]=2;
   652  007DEA  0E16               	movlw	low _data
   653  007DEC  2410               	addwf	fill@i^0,w,c
   654  007DEE  6ED9               	movwf	fsr2l,c
   655  007DF0  0E00               	movlw	high _data
   656  007DF2  2011               	addwfc	(fill@i+1)^0,w,c
   657  007DF4  6EDA               	movwf	fsr2h,c
   658  007DF6  0E02               	movlw	2
   659  007DF8  6EDF               	movwf	indf2,c
   660  007DFA                     
   661                           ;main.c: 11:     }
   662  007DFA  4A10               	infsnz	fill@i^0,f,c
   663  007DFC  2A11               	incf	(fill@i+1)^0,f,c
   664  007DFE                     l1113:
   665  007DFE  500D               	movf	fill@x^0,w,c
   666  007E00  5C10               	subwf	fill@i^0,w,c
   667  007E02  5011               	movf	(fill@i+1)^0,w,c
   668  007E04  0A80               	xorlw	128
   669  007E06  6E0F               	movwf	??_fill^0,c
   670  007E08  500E               	movf	(fill@x+1)^0,w,c
   671  007E0A  0A80               	xorlw	128
   672  007E0C  580F               	subwfb	??_fill^0,w,c
   673  007E0E  A0D8               	btfss	status,0,c
   674  007E10  EF0C  F03F         	goto	u241
   675  007E14  EF0E  F03F         	goto	u240
   676  007E18                     u241:
   677  007E18  EFF5  F03E         	goto	l1109
   678  007E1C                     u240:
   679  007E1C  0012               	return		;funcret
   680  007E1E                     __end_of_fill:
   681                           	opt callstack 0
   682                           
   683 ;; *************** function _memset *****************
   684 ;; Defined at:
   685 ;;		line 4 in file "C:\Program Files (x86)\Microchip\xc8\v2.10\pic\sources\c99\common\memset.c"
   686 ;; Parameters:    Size  Location     Type
   687 ;;  dest            2    0[COMRAM] PTR void 
   688 ;;		 -> data(14), 
   689 ;;  c               2    2[COMRAM] int 
   690 ;;  n               2    4[COMRAM] unsigned int 
   691 ;; Auto vars:     Size  Location     Type
   692 ;;  s               2   10[COMRAM] PTR unsigned char 
   693 ;;		 -> data(14), 
   694 ;;  k               2    8[COMRAM] unsigned int 
   695 ;; Return value:  Size  Location     Type
   696 ;;                  2    0[COMRAM] PTR void 
   697 ;; Registers used:
   698 ;;		wreg, fsr2l, fsr2h, status,2, status,0
   699 ;; Tracked objects:
   700 ;;		On entry : 0/0
   701 ;;		On exit  : 0/0
   702 ;;		Unchanged: 0/0
   703 ;; Data sizes:     COMRAM   BANK0   BANK1   BANK2   BANK3   BANK4   BANK5
   704 ;;      Params:         6       0       0       0       0       0       0
   705 ;;      Locals:         4       0       0       0       0       0       0
   706 ;;      Temps:          2       0       0       0       0       0       0
   707 ;;      Totals:        12       0       0       0       0       0       0
   708 ;;Total ram usage:       12 bytes
   709 ;; Hardware stack levels used:    1
   710 ;; This function calls:
   711 ;;		Nothing
   712 ;; This function is called by:
   713 ;;		_fill
   714 ;; This function uses a non-reentrant model
   715 ;;
   716                           
   717                           	psect	text6
   718  007E8A                     __ptext6:
   719                           	opt callstack 0
   720  007E8A                     _memset:
   721                           	opt callstack 29
   722  007E8A  C001  F00B         	movff	memset@dest,memset@s
   723  007E8E  C002  F00C         	movff	memset@dest+1,memset@s+1
   724  007E92  5005               	movf	memset@n^0,w,c
   725  007E94  1006               	iorwf	(memset@n+1)^0,w,c
   726  007E96  A4D8               	btfss	status,2,c
   727  007E98  EF50  F03F         	goto	u191
   728  007E9C  EF52  F03F         	goto	u190
   729  007EA0                     u191:
   730  007EA0  EF54  F03F         	goto	l1073
   731  007EA4                     u190:
   732  007EA4  EFFF  F03F         	goto	l879
   733  007EA8                     l1073:
   734  007EA8  C00B  FFD9         	movff	memset@s,fsr2l
   735  007EAC  C00C  FFDA         	movff	memset@s+1,fsr2h
   736  007EB0  C003  FFDF         	movff	memset@c,indf2
   737  007EB4  5005               	movf	memset@n^0,w,c
   738  007EB6  240B               	addwf	memset@s^0,w,c
   739  007EB8  6E07               	movwf	??_memset^0,c
   740  007EBA  5006               	movf	(memset@n+1)^0,w,c
   741  007EBC  200C               	addwfc	(memset@s+1)^0,w,c
   742  007EBE  6E08               	movwf	(??_memset+1)^0,c
   743  007EC0  0EFF               	movlw	255
   744  007EC2  2407               	addwf	??_memset^0,w,c
   745  007EC4  6ED9               	movwf	fsr2l,c
   746  007EC6  0EFF               	movlw	255
   747  007EC8  2008               	addwfc	(??_memset+1)^0,w,c
   748  007ECA  6EDA               	movwf	fsr2h,c
   749  007ECC  C003  FFDF         	movff	memset@c,indf2
   750  007ED0  5006               	movf	(memset@n+1)^0,w,c
   751  007ED2  E107               	bnz	u201
   752  007ED4  0E03               	movlw	3
   753  007ED6  5C05               	subwf	memset@n^0,w,c
   754  007ED8  B0D8               	btfsc	status,0,c
   755  007EDA  EF71  F03F         	goto	u201
   756  007EDE  EF73  F03F         	goto	u200
   757  007EE2                     u201:
   758  007EE2  EF75  F03F         	goto	l1079
   759  007EE6                     u200:
   760  007EE6  EFFF  F03F         	goto	l879
   761  007EEA                     l1079:
   762  007EEA  EE20 F001          	lfsr	2,1
   763  007EEE  500B               	movf	memset@s^0,w,c
   764  007EF0  26D9               	addwf	fsr2l,f,c
   765  007EF2  500C               	movf	(memset@s+1)^0,w,c
   766  007EF4  22DA               	addwfc	fsr2h,f,c
   767  007EF6  C003  FFDF         	movff	memset@c,indf2
   768  007EFA  EE20 F002          	lfsr	2,2
   769  007EFE  500B               	movf	memset@s^0,w,c
   770  007F00  26D9               	addwf	fsr2l,f,c
   771  007F02  500C               	movf	(memset@s+1)^0,w,c
   772  007F04  22DA               	addwfc	fsr2h,f,c
   773  007F06  C003  FFDF         	movff	memset@c,indf2
   774  007F0A  5005               	movf	memset@n^0,w,c
   775  007F0C  240B               	addwf	memset@s^0,w,c
   776  007F0E  6E07               	movwf	??_memset^0,c
   777  007F10  5006               	movf	(memset@n+1)^0,w,c
   778  007F12  200C               	addwfc	(memset@s+1)^0,w,c
   779  007F14  6E08               	movwf	(??_memset+1)^0,c
   780  007F16  0EFE               	movlw	254
   781  007F18  2407               	addwf	??_memset^0,w,c
   782  007F1A  6ED9               	movwf	fsr2l,c
   783  007F1C  0EFF               	movlw	255
   784  007F1E  2008               	addwfc	(??_memset+1)^0,w,c
   785  007F20  6EDA               	movwf	fsr2h,c
   786  007F22  C003  FFDF         	movff	memset@c,indf2
   787  007F26  5005               	movf	memset@n^0,w,c
   788  007F28  240B               	addwf	memset@s^0,w,c
   789  007F2A  6E07               	movwf	??_memset^0,c
   790  007F2C  5006               	movf	(memset@n+1)^0,w,c
   791  007F2E  200C               	addwfc	(memset@s+1)^0,w,c
   792  007F30  6E08               	movwf	(??_memset+1)^0,c
   793  007F32  0EFD               	movlw	253
   794  007F34  2407               	addwf	??_memset^0,w,c
   795  007F36  6ED9               	movwf	fsr2l,c
   796  007F38  0EFF               	movlw	255
   797  007F3A  2008               	addwfc	(??_memset+1)^0,w,c
   798  007F3C  6EDA               	movwf	fsr2h,c
   799  007F3E  C003  FFDF         	movff	memset@c,indf2
   800  007F42  5006               	movf	(memset@n+1)^0,w,c
   801  007F44  E107               	bnz	u211
   802  007F46  0E07               	movlw	7
   803  007F48  5C05               	subwf	memset@n^0,w,c
   804  007F4A  B0D8               	btfsc	status,0,c
   805  007F4C  EFAA  F03F         	goto	u211
   806  007F50  EFAC  F03F         	goto	u210
   807  007F54                     u211:
   808  007F54  EFAE  F03F         	goto	l1085
   809  007F58                     u210:
   810  007F58  EFFF  F03F         	goto	l879
   811  007F5C                     l1085:
   812  007F5C  EE20 F003          	lfsr	2,3
   813  007F60  500B               	movf	memset@s^0,w,c
   814  007F62  26D9               	addwf	fsr2l,f,c
   815  007F64  500C               	movf	(memset@s+1)^0,w,c
   816  007F66  22DA               	addwfc	fsr2h,f,c
   817  007F68  C003  FFDF         	movff	memset@c,indf2
   818  007F6C  5005               	movf	memset@n^0,w,c
   819  007F6E  240B               	addwf	memset@s^0,w,c
   820  007F70  6E07               	movwf	??_memset^0,c
   821  007F72  5006               	movf	(memset@n+1)^0,w,c
   822  007F74  200C               	addwfc	(memset@s+1)^0,w,c
   823  007F76  6E08               	movwf	(??_memset+1)^0,c
   824  007F78  0EFC               	movlw	252
   825  007F7A  2407               	addwf	??_memset^0,w,c
   826  007F7C  6ED9               	movwf	fsr2l,c
   827  007F7E  0EFF               	movlw	255
   828  007F80  2008               	addwfc	(??_memset+1)^0,w,c
   829  007F82  6EDA               	movwf	fsr2h,c
   830  007F84  C003  FFDF         	movff	memset@c,indf2
   831  007F88  5006               	movf	(memset@n+1)^0,w,c
   832  007F8A  E107               	bnz	u221
   833  007F8C  0E09               	movlw	9
   834  007F8E  5C05               	subwf	memset@n^0,w,c
   835  007F90  B0D8               	btfsc	status,0,c
   836  007F92  EFCD  F03F         	goto	u221
   837  007F96  EFCF  F03F         	goto	u220
   838  007F9A                     u221:
   839  007F9A  EFD1  F03F         	goto	l1091
   840  007F9E                     u220:
   841  007F9E  EFFF  F03F         	goto	l879
   842  007FA2                     l1091:
   843  007FA2  C00B  F007         	movff	memset@s,??_memset
   844  007FA6  C00C  F008         	movff	memset@s+1,??_memset+1
   845  007FAA  1E07               	comf	??_memset^0,f,c
   846  007FAC  1E08               	comf	(??_memset+1)^0,f,c
   847  007FAE  4A07               	infsnz	??_memset^0,f,c
   848  007FB0  2A08               	incf	(??_memset+1)^0,f,c
   849  007FB2  0E03               	movlw	3
   850  007FB4  1407               	andwf	??_memset^0,w,c
   851  007FB6  6E09               	movwf	memset@k^0,c
   852  007FB8  6A0A               	clrf	(memset@k+1)^0,c
   853  007FBA  5009               	movf	memset@k^0,w,c
   854  007FBC  260B               	addwf	memset@s^0,f,c
   855  007FBE  500A               	movf	(memset@k+1)^0,w,c
   856  007FC0  220C               	addwfc	(memset@s+1)^0,f,c
   857  007FC2  5009               	movf	memset@k^0,w,c
   858  007FC4  5E05               	subwf	memset@n^0,f,c
   859  007FC6  500A               	movf	(memset@k+1)^0,w,c
   860  007FC8  5A06               	subwfb	(memset@n+1)^0,f,c
   861  007FCA  0EFC               	movlw	252
   862  007FCC  1605               	andwf	memset@n^0,f,c
   863  007FCE  0EFF               	movlw	255
   864  007FD0  1606               	andwf	(memset@n+1)^0,f,c
   865  007FD2  EFF6  F03F         	goto	l1099
   866  007FD6                     l1093:
   867  007FD6  C00B  FFD9         	movff	memset@s,fsr2l
   868  007FDA  C00C  FFDA         	movff	memset@s+1,fsr2h
   869  007FDE  C003  FFDF         	movff	memset@c,indf2
   870  007FE2  0605               	decf	memset@n^0,f,c
   871  007FE4  A0D8               	btfss	status,0,c
   872  007FE6  0606               	decf	(memset@n+1)^0,f,c
   873  007FE8  4A0B               	infsnz	memset@s^0,f,c
   874  007FEA  2A0C               	incf	(memset@s+1)^0,f,c
   875  007FEC                     l1099:
   876  007FEC  5005               	movf	memset@n^0,w,c
   877  007FEE  1006               	iorwf	(memset@n+1)^0,w,c
   878  007FF0  A4D8               	btfss	status,2,c
   879  007FF2  EFFD  F03F         	goto	u231
   880  007FF6  EFFF  F03F         	goto	u230
   881  007FFA                     u231:
   882  007FFA  EFEB  F03F         	goto	l1093
   883  007FFE                     u230:
   884  007FFE                     l879:
   885  007FFE  0012               	return		;funcret
   886  008000                     __end_of_memset:
   887                           	opt callstack 0
   888                           
   889 ;; *************** function _SYSTEM_Initialize *****************
   890 ;; Defined at:
   891 ;;		line 50 in file "mcc_generated_files/mcc.c"
   892 ;; Parameters:    Size  Location     Type
   893 ;;		None
   894 ;; Auto vars:     Size  Location     Type
   895 ;;		None
   896 ;; Return value:  Size  Location     Type
   897 ;;                  1    wreg      void 
   898 ;; Registers used:
   899 ;;		wreg, status,2, status,0, cstack
   900 ;; Tracked objects:
   901 ;;		On entry : 0/0
   902 ;;		On exit  : 0/0
   903 ;;		Unchanged: 0/0
   904 ;; Data sizes:     COMRAM   BANK0   BANK1   BANK2   BANK3   BANK4   BANK5
   905 ;;      Params:         0       0       0       0       0       0       0
   906 ;;      Locals:         0       0       0       0       0       0       0
   907 ;;      Temps:          0       0       0       0       0       0       0
   908 ;;      Totals:         0       0       0       0       0       0       0
   909 ;;Total ram usage:        0 bytes
   910 ;; Hardware stack levels used:    1
   911 ;; Hardware stack levels required when called:    2
   912 ;; This function calls:
   913 ;;		_EUSART2_Initialize
   914 ;;		_OSCILLATOR_Initialize
   915 ;;		_PIN_MANAGER_Initialize
   916 ;; This function is called by:
   917 ;;		_main
   918 ;; This function uses a non-reentrant model
   919 ;;
   920                           
   921                           	psect	text7
   922  007C62                     __ptext7:
   923                           	opt callstack 0
   924  007C62                     _SYSTEM_Initialize:
   925                           	opt callstack 28
   926  007C62                     
   927                           ;mcc_generated_files/mcc.c: 53:     PIN_MANAGER_Initialize();
   928  007C62  EC77  F03E         	call	_PIN_MANAGER_Initialize	;wreg free
   929                           
   930                           ;mcc_generated_files/mcc.c: 54:     OSCILLATOR_Initialize();
   931  007C66  EC2A  F03E         	call	_OSCILLATOR_Initialize	;wreg free
   932  007C6A                     
   933                           ;mcc_generated_files/mcc.c: 55:     EUSART2_Initialize();
   934  007C6A  EC58  F03E         	call	_EUSART2_Initialize	;wreg free
   935  007C6E  0012               	return		;funcret
   936  007C70                     __end_of_SYSTEM_Initialize:
   937                           	opt callstack 0
   938                           
   939 ;; *************** function _PIN_MANAGER_Initialize *****************
   940 ;; Defined at:
   941 ;;		line 55 in file "mcc_generated_files/pin_manager.c"
   942 ;; Parameters:    Size  Location     Type
   943 ;;		None
   944 ;; Auto vars:     Size  Location     Type
   945 ;;		None
   946 ;; Return value:  Size  Location     Type
   947 ;;                  1    wreg      void 
   948 ;; Registers used:
   949 ;;		wreg, status,2
   950 ;; Tracked objects:
   951 ;;		On entry : 0/0
   952 ;;		On exit  : 0/0
   953 ;;		Unchanged: 0/0
   954 ;; Data sizes:     COMRAM   BANK0   BANK1   BANK2   BANK3   BANK4   BANK5
   955 ;;      Params:         0       0       0       0       0       0       0
   956 ;;      Locals:         0       0       0       0       0       0       0
   957 ;;      Temps:          0       0       0       0       0       0       0
   958 ;;      Totals:         0       0       0       0       0       0       0
   959 ;;Total ram usage:        0 bytes
   960 ;; Hardware stack levels used:    1
   961 ;; This function calls:
   962 ;;		Nothing
   963 ;; This function is called by:
   964 ;;		_SYSTEM_Initialize
   965 ;; This function uses a non-reentrant model
   966 ;;
   967                           
   968                           	psect	text8
   969  007CEE                     __ptext8:
   970                           	opt callstack 0
   971  007CEE                     _PIN_MANAGER_Initialize:
   972                           	opt callstack 29
   973  007CEE                     
   974                           ;mcc_generated_files/pin_manager.c: 60:     LATE = 0x00;
   975  007CEE  0E00               	movlw	0
   976  007CF0  6E8D               	movwf	141,c	;volatile
   977                           
   978                           ;mcc_generated_files/pin_manager.c: 61:     LATD = 0x00;
   979  007CF2  0E00               	movlw	0
   980  007CF4  6E8C               	movwf	140,c	;volatile
   981                           
   982                           ;mcc_generated_files/pin_manager.c: 62:     LATA = 0x00;
   983  007CF6  0E00               	movlw	0
   984  007CF8  6E89               	movwf	137,c	;volatile
   985                           
   986                           ;mcc_generated_files/pin_manager.c: 63:     LATB = 0x00;
   987  007CFA  0E00               	movlw	0
   988  007CFC  6E8A               	movwf	138,c	;volatile
   989                           
   990                           ;mcc_generated_files/pin_manager.c: 64:     LATC = 0x00;
   991  007CFE  0E00               	movlw	0
   992  007D00  6E8B               	movwf	139,c	;volatile
   993                           
   994                           ;mcc_generated_files/pin_manager.c: 69:     TRISE = 0x07;
   995  007D02  0E07               	movlw	7
   996  007D04  6E96               	movwf	150,c	;volatile
   997  007D06                     
   998                           ;mcc_generated_files/pin_manager.c: 70:     TRISA = 0xFF;
   999  007D06  6892               	setf	146,c	;volatile
  1000  007D08                     
  1001                           ;mcc_generated_files/pin_manager.c: 71:     TRISB = 0xFF;
  1002  007D08  6893               	setf	147,c	;volatile
  1003  007D0A                     
  1004                           ;mcc_generated_files/pin_manager.c: 72:     TRISC = 0xFF;
  1005  007D0A  6894               	setf	148,c	;volatile
  1006                           
  1007                           ;mcc_generated_files/pin_manager.c: 73:     TRISD = 0xBB;
  1008  007D0C  0EBB               	movlw	187
  1009  007D0E  6E95               	movwf	149,c	;volatile
  1010                           
  1011                           ;mcc_generated_files/pin_manager.c: 78:     ANSELD = 0x3B;
  1012  007D10  0E3B               	movlw	59
  1013  007D12  010F               	movlb	15	; () banked
  1014  007D14  6F3B               	movwf	59,b	;volatile
  1015                           
  1016                           ;mcc_generated_files/pin_manager.c: 79:     ANSELC = 0xFC;
  1017  007D16  0EFC               	movlw	252
  1018  007D18  6F3A               	movwf	58,b	;volatile
  1019                           
  1020                           ;mcc_generated_files/pin_manager.c: 80:     ANSELB = 0x3F;
  1021  007D1A  0E3F               	movlw	63
  1022  007D1C  6F39               	movwf	57,b	;volatile
  1023                           
  1024                           ;mcc_generated_files/pin_manager.c: 81:     ANSELE = 0x07;
  1025  007D1E  0E07               	movlw	7
  1026  007D20  6F3C               	movwf	60,b	;volatile
  1027                           
  1028                           ;mcc_generated_files/pin_manager.c: 82:     ANSELA = 0x2F;
  1029  007D22  0E2F               	movlw	47
  1030  007D24  6F38               	movwf	56,b	;volatile
  1031                           
  1032                           ;mcc_generated_files/pin_manager.c: 87:     WPUB = 0x00;
  1033  007D26  0E00               	movlw	0
  1034  007D28  6E61               	movwf	97,c	;volatile
  1035  007D2A                     
  1036                           ; BSR set to: 15
  1037                           ;mcc_generated_files/pin_manager.c: 88:     INTCON2bits.nRBPU = 1;
  1038  007D2A  8EF1               	bsf	241,7,c	;volatile
  1039  007D2C                     
  1040                           ; BSR set to: 15
  1041  007D2C  0012               	return		;funcret
  1042  007D2E                     __end_of_PIN_MANAGER_Initialize:
  1043                           	opt callstack 0
  1044                           
  1045 ;; *************** function _OSCILLATOR_Initialize *****************
  1046 ;; Defined at:
  1047 ;;		line 58 in file "mcc_generated_files/mcc.c"
  1048 ;; Parameters:    Size  Location     Type
  1049 ;;		None
  1050 ;; Auto vars:     Size  Location     Type
  1051 ;;		None
  1052 ;; Return value:  Size  Location     Type
  1053 ;;                  1    wreg      void 
  1054 ;; Registers used:
  1055 ;;		wreg, status,2
  1056 ;; Tracked objects:
  1057 ;;		On entry : 0/0
  1058 ;;		On exit  : 0/0
  1059 ;;		Unchanged: 0/0
  1060 ;; Data sizes:     COMRAM   BANK0   BANK1   BANK2   BANK3   BANK4   BANK5
  1061 ;;      Params:         0       0       0       0       0       0       0
  1062 ;;      Locals:         0       0       0       0       0       0       0
  1063 ;;      Temps:          0       0       0       0       0       0       0
  1064 ;;      Totals:         0       0       0       0       0       0       0
  1065 ;;Total ram usage:        0 bytes
  1066 ;; Hardware stack levels used:    1
  1067 ;; This function calls:
  1068 ;;		Nothing
  1069 ;; This function is called by:
  1070 ;;		_SYSTEM_Initialize
  1071 ;; This function uses a non-reentrant model
  1072 ;;
  1073                           
  1074                           	psect	text9
  1075  007C54                     __ptext9:
  1076                           	opt callstack 0
  1077  007C54                     _OSCILLATOR_Initialize:
  1078                           	opt callstack 29
  1079  007C54                     
  1080                           ;mcc_generated_files/mcc.c: 61:     OSCCON = 0x30;
  1081  007C54  0E30               	movlw	48
  1082  007C56  6ED3               	movwf	211,c	;volatile
  1083                           
  1084                           ;mcc_generated_files/mcc.c: 63:     OSCCON2 = 0x04;
  1085  007C58  0E04               	movlw	4
  1086  007C5A  6ED2               	movwf	210,c	;volatile
  1087                           
  1088                           ;mcc_generated_files/mcc.c: 65:     OSCTUNE = 0x00;
  1089  007C5C  0E00               	movlw	0
  1090  007C5E  6E9B               	movwf	155,c	;volatile
  1091  007C60  0012               	return		;funcret
  1092  007C62                     __end_of_OSCILLATOR_Initialize:
  1093                           	opt callstack 0
  1094                           
  1095 ;; *************** function _EUSART2_Initialize *****************
  1096 ;; Defined at:
  1097 ;;		line 66 in file "mcc_generated_files/eusart2.c"
  1098 ;; Parameters:    Size  Location     Type
  1099 ;;		None
  1100 ;; Auto vars:     Size  Location     Type
  1101 ;;		None
  1102 ;; Return value:  Size  Location     Type
  1103 ;;                  1    wreg      void 
  1104 ;; Registers used:
  1105 ;;		wreg, status,2, status,0, cstack
  1106 ;; Tracked objects:
  1107 ;;		On entry : 0/0
  1108 ;;		On exit  : 0/0
  1109 ;;		Unchanged: 0/0
  1110 ;; Data sizes:     COMRAM   BANK0   BANK1   BANK2   BANK3   BANK4   BANK5
  1111 ;;      Params:         0       0       0       0       0       0       0
  1112 ;;      Locals:         0       0       0       0       0       0       0
  1113 ;;      Temps:          0       0       0       0       0       0       0
  1114 ;;      Totals:         0       0       0       0       0       0       0
  1115 ;;Total ram usage:        0 bytes
  1116 ;; Hardware stack levels used:    1
  1117 ;; Hardware stack levels required when called:    1
  1118 ;; This function calls:
  1119 ;;		_EUSART2_SetErrorHandler
  1120 ;;		_EUSART2_SetFramingErrorHandler
  1121 ;;		_EUSART2_SetOverrunErrorHandler
  1122 ;; This function is called by:
  1123 ;;		_SYSTEM_Initialize
  1124 ;; This function uses a non-reentrant model
  1125 ;;
  1126                           
  1127                           	psect	text10
  1128  007CB0                     __ptext10:
  1129                           	opt callstack 0
  1130  007CB0                     _EUSART2_Initialize:
  1131                           	opt callstack 28
  1132  007CB0                     
  1133                           ;mcc_generated_files/eusart2.c: 71:     BAUDCON2 = 0x08;
  1134  007CB0  0E08               	movlw	8
  1135  007CB2  6E70               	movwf	112,c	;volatile
  1136                           
  1137                           ;mcc_generated_files/eusart2.c: 74:     RCSTA2 = 0x90;
  1138  007CB4  0E90               	movlw	144
  1139  007CB6  6E71               	movwf	113,c	;volatile
  1140                           
  1141                           ;mcc_generated_files/eusart2.c: 77:     TXSTA2 = 0x24;
  1142  007CB8  0E24               	movlw	36
  1143  007CBA  6E72               	movwf	114,c	;volatile
  1144                           
  1145                           ;mcc_generated_files/eusart2.c: 80:     SPBRG2 = 0x0C;
  1146  007CBC  0E0C               	movlw	12
  1147  007CBE  6E75               	movwf	117,c	;volatile
  1148                           
  1149                           ;mcc_generated_files/eusart2.c: 83:     SPBRGH2 = 0x00;
  1150  007CC0  0E00               	movlw	0
  1151  007CC2  6E76               	movwf	118,c	;volatile
  1152  007CC4                     
  1153                           ;mcc_generated_files/eusart2.c: 86:     EUSART2_SetFramingErrorHandler(EUSART2_DefaultFr
      +                          amingErrorHandler);
  1154  007CC4  0E00               	movlw	0
  1155  007CC6  6E01               	movwf	EUSART2_SetFramingErrorHandler@interruptHandler^0,c
  1156  007CC8  0E00               	movlw	0
  1157  007CCA  6E02               	movwf	(EUSART2_SetFramingErrorHandler@interruptHandler+1)^0,c
  1158  007CCC  EC20  F03E         	call	_EUSART2_SetFramingErrorHandler	;wreg free
  1159  007CD0                     
  1160                           ;mcc_generated_files/eusart2.c: 87:     EUSART2_SetOverrunErrorHandler(EUSART2_DefaultOv
      +                          errunErrorHandler);
  1161  007CD0  0E00               	movlw	0
  1162  007CD2  6E01               	movwf	EUSART2_SetOverrunErrorHandler@interruptHandler^0,c
  1163  007CD4  0E00               	movlw	0
  1164  007CD6  6E02               	movwf	(EUSART2_SetOverrunErrorHandler@interruptHandler+1)^0,c
  1165  007CD8  EC25  F03E         	call	_EUSART2_SetOverrunErrorHandler	;wreg free
  1166  007CDC                     
  1167                           ;mcc_generated_files/eusart2.c: 88:     EUSART2_SetErrorHandler(EUSART2_DefaultErrorHand
      +                          ler);
  1168  007CDC  0E00               	movlw	0
  1169  007CDE  6E01               	movwf	EUSART2_SetErrorHandler@interruptHandler^0,c
  1170  007CE0  0E00               	movlw	0
  1171  007CE2  6E02               	movwf	(EUSART2_SetErrorHandler@interruptHandler+1)^0,c
  1172  007CE4  EC1B  F03E         	call	_EUSART2_SetErrorHandler	;wreg free
  1173  007CE8                     
  1174                           ;mcc_generated_files/eusart2.c: 90:     eusart2RxLastError.status = 0;
  1175  007CE8  0E00               	movlw	0
  1176  007CEA  6E15               	movwf	_eusart2RxLastError^0,c	;volatile
  1177  007CEC  0012               	return		;funcret
  1178  007CEE                     __end_of_EUSART2_Initialize:
  1179                           	opt callstack 0
  1180                           
  1181 ;; *************** function _EUSART2_SetOverrunErrorHandler *****************
  1182 ;; Defined at:
  1183 ;;		line 170 in file "mcc_generated_files/eusart2.c"
  1184 ;; Parameters:    Size  Location     Type
  1185 ;;  interruptHan    2    0[COMRAM] PTR FTN()void 
  1186 ;;		 -> EUSART2_DefaultOverrunErrorHandler(1), 
  1187 ;; Auto vars:     Size  Location     Type
  1188 ;;		None
  1189 ;; Return value:  Size  Location     Type
  1190 ;;                  1    wreg      void 
  1191 ;; Registers used:
  1192 ;;		wreg, status,2, status,0
  1193 ;; Tracked objects:
  1194 ;;		On entry : 0/0
  1195 ;;		On exit  : 0/0
  1196 ;;		Unchanged: 0/0
  1197 ;; Data sizes:     COMRAM   BANK0   BANK1   BANK2   BANK3   BANK4   BANK5
  1198 ;;      Params:         2       0       0       0       0       0       0
  1199 ;;      Locals:         0       0       0       0       0       0       0
  1200 ;;      Temps:          0       0       0       0       0       0       0
  1201 ;;      Totals:         2       0       0       0       0       0       0
  1202 ;;Total ram usage:        2 bytes
  1203 ;; Hardware stack levels used:    1
  1204 ;; This function calls:
  1205 ;;		Nothing
  1206 ;; This function is called by:
  1207 ;;		_EUSART2_Initialize
  1208 ;; This function uses a non-reentrant model
  1209 ;;
  1210                           
  1211                           	psect	text11
  1212  007C4A                     __ptext11:
  1213                           	opt callstack 0
  1214  007C4A                     _EUSART2_SetOverrunErrorHandler:
  1215                           	opt callstack 28
  1216  007C4A                     
  1217                           ;mcc_generated_files/eusart2.c: 171:     EUSART2_OverrunErrorHandler = interruptHandler;
  1218  007C4A  C001  F026         	movff	EUSART2_SetOverrunErrorHandler@interruptHandler,_EUSART2_OverrunErrorHandler
  1219  007C4E  C002  F027         	movff	EUSART2_SetOverrunErrorHandler@interruptHandler+1,_EUSART2_OverrunErrorHandler+1
  1220  007C52  0012               	return		;funcret
  1221  007C54                     __end_of_EUSART2_SetOverrunErrorHandler:
  1222                           	opt callstack 0
  1223                           
  1224 ;; *************** function _EUSART2_SetFramingErrorHandler *****************
  1225 ;; Defined at:
  1226 ;;		line 166 in file "mcc_generated_files/eusart2.c"
  1227 ;; Parameters:    Size  Location     Type
  1228 ;;  interruptHan    2    0[COMRAM] PTR FTN()void 
  1229 ;;		 -> EUSART2_DefaultFramingErrorHandler(1), 
  1230 ;; Auto vars:     Size  Location     Type
  1231 ;;		None
  1232 ;; Return value:  Size  Location     Type
  1233 ;;                  1    wreg      void 
  1234 ;; Registers used:
  1235 ;;		wreg, status,2, status,0
  1236 ;; Tracked objects:
  1237 ;;		On entry : 0/0
  1238 ;;		On exit  : 0/0
  1239 ;;		Unchanged: 0/0
  1240 ;; Data sizes:     COMRAM   BANK0   BANK1   BANK2   BANK3   BANK4   BANK5
  1241 ;;      Params:         2       0       0       0       0       0       0
  1242 ;;      Locals:         0       0       0       0       0       0       0
  1243 ;;      Temps:          0       0       0       0       0       0       0
  1244 ;;      Totals:         2       0       0       0       0       0       0
  1245 ;;Total ram usage:        2 bytes
  1246 ;; Hardware stack levels used:    1
  1247 ;; This function calls:
  1248 ;;		Nothing
  1249 ;; This function is called by:
  1250 ;;		_EUSART2_Initialize
  1251 ;; This function uses a non-reentrant model
  1252 ;;
  1253                           
  1254                           	psect	text12
  1255  007C40                     __ptext12:
  1256                           	opt callstack 0
  1257  007C40                     _EUSART2_SetFramingErrorHandler:
  1258                           	opt callstack 28
  1259  007C40                     
  1260                           ;mcc_generated_files/eusart2.c: 167:     EUSART2_FramingErrorHandler = interruptHandler;
  1261  007C40  C001  F028         	movff	EUSART2_SetFramingErrorHandler@interruptHandler,_EUSART2_FramingErrorHandler
  1262  007C44  C002  F029         	movff	EUSART2_SetFramingErrorHandler@interruptHandler+1,_EUSART2_FramingErrorHandler+1
  1263  007C48  0012               	return		;funcret
  1264  007C4A                     __end_of_EUSART2_SetFramingErrorHandler:
  1265                           	opt callstack 0
  1266                           
  1267 ;; *************** function _EUSART2_SetErrorHandler *****************
  1268 ;; Defined at:
  1269 ;;		line 174 in file "mcc_generated_files/eusart2.c"
  1270 ;; Parameters:    Size  Location     Type
  1271 ;;  interruptHan    2    0[COMRAM] PTR FTN()void 
  1272 ;;		 -> EUSART2_DefaultErrorHandler(1), 
  1273 ;; Auto vars:     Size  Location     Type
  1274 ;;		None
  1275 ;; Return value:  Size  Location     Type
  1276 ;;                  1    wreg      void 
  1277 ;; Registers used:
  1278 ;;		wreg, status,2, status,0
  1279 ;; Tracked objects:
  1280 ;;		On entry : 0/0
  1281 ;;		On exit  : 0/0
  1282 ;;		Unchanged: 0/0
  1283 ;; Data sizes:     COMRAM   BANK0   BANK1   BANK2   BANK3   BANK4   BANK5
  1284 ;;      Params:         2       0       0       0       0       0       0
  1285 ;;      Locals:         0       0       0       0       0       0       0
  1286 ;;      Temps:          0       0       0       0       0       0       0
  1287 ;;      Totals:         2       0       0       0       0       0       0
  1288 ;;Total ram usage:        2 bytes
  1289 ;; Hardware stack levels used:    1
  1290 ;; This function calls:
  1291 ;;		Nothing
  1292 ;; This function is called by:
  1293 ;;		_EUSART2_Initialize
  1294 ;; This function uses a non-reentrant model
  1295 ;;
  1296                           
  1297                           	psect	text13
  1298  007C36                     __ptext13:
  1299                           	opt callstack 0
  1300  007C36                     _EUSART2_SetErrorHandler:
  1301                           	opt callstack 28
  1302  007C36                     
  1303                           ;mcc_generated_files/eusart2.c: 175:     EUSART2_ErrorHandler = interruptHandler;
  1304  007C36  C001  F024         	movff	EUSART2_SetErrorHandler@interruptHandler,_EUSART2_ErrorHandler
  1305  007C3A  C002  F025         	movff	EUSART2_SetErrorHandler@interruptHandler+1,_EUSART2_ErrorHandler+1
  1306  007C3E  0012               	return		;funcret
  1307  007C40                     __end_of_EUSART2_SetErrorHandler:
  1308                           	opt callstack 0
  1309  0000                     
  1310                           	psect	rparam
  1311  0000                     tosu	equ	0xFFF
  1312                           tosh	equ	0xFFE
  1313                           tosl	equ	0xFFD
  1314                           stkptr	equ	0xFFC
  1315                           pclatu	equ	0xFFB
  1316                           pclath	equ	0xFFA
  1317                           pcl	equ	0xFF9
  1318                           tblptru	equ	0xFF8
  1319                           tblptrh	equ	0xFF7
  1320                           tblptrl	equ	0xFF6
  1321                           tablat	equ	0xFF5
  1322                           prodh	equ	0xFF4
  1323                           prodl	equ	0xFF3
  1324                           indf0	equ	0xFEF
  1325                           postinc0	equ	0xFEE
  1326                           postdec0	equ	0xFED
  1327                           preinc0	equ	0xFEC
  1328                           plusw0	equ	0xFEB
  1329                           fsr0h	equ	0xFEA
  1330                           fsr0l	equ	0xFE9
  1331                           wreg	equ	0xFE8
  1332                           indf1	equ	0xFE7
  1333                           postinc1	equ	0xFE6
  1334                           postdec1	equ	0xFE5
  1335                           preinc1	equ	0xFE4
  1336                           plusw1	equ	0xFE3
  1337                           fsr1h	equ	0xFE2
  1338                           fsr1l	equ	0xFE1
  1339                           bsr	equ	0xFE0
  1340                           indf2	equ	0xFDF
  1341                           postinc2	equ	0xFDE
  1342                           postdec2	equ	0xFDD
  1343                           preinc2	equ	0xFDC
  1344                           plusw2	equ	0xFDB
  1345                           fsr2h	equ	0xFDA
  1346                           fsr2l	equ	0xFD9
  1347                           status	equ	0xFD8


Data Sizes:
    Strings     0
    Constant    0
    Data        0
    BSS         15
    Persistent  6
    Stack       0

Auto Spaces:
    Space          Size  Autos    Used
    COMRAM           95     20      41
    BANK0           160      0       0
    BANK1           256      0       0
    BANK2           256      0       0
    BANK3           256      0       0
    BANK4           256      0       0
    BANK5           256      0       0

Pointer List with Targets:

    memset@dest	PTR void  size(2) Largest target is 14
		 -> data(COMRAM[14]), 

    memset@s	PTR unsigned char  size(2) Largest target is 14
		 -> data(COMRAM[14]), 

    sp__memset	PTR void  size(2) Largest target is 14
		 -> data(COMRAM[14]), 

    EUSART2_SetErrorHandler@interruptHandler	PTR FTN()void  size(2) Largest target is 1
		 -> EUSART2_DefaultErrorHandler(), 

    EUSART2_ErrorHandler	PTR FTN()void  size(2) Largest target is 1
		 -> Absolute function(), EUSART2_DefaultErrorHandler(), 

    EUSART2_SetOverrunErrorHandler@interruptHandler	PTR FTN()void  size(2) Largest target is 1
		 -> EUSART2_DefaultOverrunErrorHandler(), 

    EUSART2_OverrunErrorHandler	PTR FTN()void  size(2) Largest target is 1
		 -> Absolute function(), EUSART2_DefaultOverrunErrorHandler(), 

    EUSART2_SetFramingErrorHandler@interruptHandler	PTR FTN()void  size(2) Largest target is 1
		 -> EUSART2_DefaultFramingErrorHandler(), 

    EUSART2_FramingErrorHandler	PTR FTN()void  size(2) Largest target is 1
		 -> Absolute function(), EUSART2_DefaultFramingErrorHandler(), 


Critical Paths under _main in COMRAM

    _main->_fill
    _send_pad->_EUSART2_Write
    _send_buf->_EUSART2_Write
    _fill->_memset
    _EUSART2_Initialize->_EUSART2_SetErrorHandler
    _EUSART2_Initialize->_EUSART2_SetFramingErrorHandler
    _EUSART2_Initialize->_EUSART2_SetOverrunErrorHandler

Critical Paths under _main in BANK0

    None.

Critical Paths under _main in BANK1

    None.

Critical Paths under _main in BANK2

    None.

Critical Paths under _main in BANK3

    None.

Critical Paths under _main in BANK4

    None.

Critical Paths under _main in BANK5

    None.

Call Graph Tables:

 ---------------------------------------------------------------------------------
 (Depth) Function   	        Calls       Base Space   Used Autos Params    Refs
 ---------------------------------------------------------------------------------
 (0) _main                                                 3     3      0    1537
                                             17 COMRAM     3     3      0
                 _EUSART2_is_tx_done
                  _SYSTEM_Initialize
                               _fill
                           _send_buf
                           _send_pad
 ---------------------------------------------------------------------------------
 (1) _send_pad                                             2     2      0      45
                                              1 COMRAM     2     2      0
                      _EUSART2_Write
                 _EUSART2_is_tx_done
 ---------------------------------------------------------------------------------
 (1) _send_buf                                             2     2      0      60
                                              1 COMRAM     2     2      0
                      _EUSART2_Write
                 _EUSART2_is_tx_done
 ---------------------------------------------------------------------------------
 (2) _EUSART2_is_tx_done                                   0     0      0       0
 ---------------------------------------------------------------------------------
 (2) _EUSART2_Write                                        1     1      0      15
                                              0 COMRAM     1     1      0
 ---------------------------------------------------------------------------------
 (1) _fill                                                 5     3      2    1091
                                             12 COMRAM     5     3      2
                             _memset
 ---------------------------------------------------------------------------------
 (2) _memset                                              12     6      6     947
                                              0 COMRAM    12     6      6
 ---------------------------------------------------------------------------------
 (1) _SYSTEM_Initialize                                    0     0      0     294
                 _EUSART2_Initialize
              _OSCILLATOR_Initialize
             _PIN_MANAGER_Initialize
 ---------------------------------------------------------------------------------
 (2) _PIN_MANAGER_Initialize                               0     0      0       0
 ---------------------------------------------------------------------------------
 (2) _OSCILLATOR_Initialize                                0     0      0       0
 ---------------------------------------------------------------------------------
 (2) _EUSART2_Initialize                                   0     0      0     294
            _EUSART2_SetErrorHandler
     _EUSART2_SetFramingErrorHandler
     _EUSART2_SetOverrunErrorHandler
 ---------------------------------------------------------------------------------
 (3) _EUSART2_SetOverrunErrorHandler                       2     0      2      98
                                              0 COMRAM     2     0      2
 ---------------------------------------------------------------------------------
 (3) _EUSART2_SetFramingErrorHandler                       2     0      2      98
                                              0 COMRAM     2     0      2
 ---------------------------------------------------------------------------------
 (3) _EUSART2_SetErrorHandler                              2     0      2      98
                                              0 COMRAM     2     0      2
 ---------------------------------------------------------------------------------
 Estimated maximum stack depth 3
 ---------------------------------------------------------------------------------

 Call Graph Graphs:

 _main (ROOT)
   _EUSART2_is_tx_done
   _SYSTEM_Initialize
     _EUSART2_Initialize
       _EUSART2_SetErrorHandler
       _EUSART2_SetFramingErrorHandler
       _EUSART2_SetOverrunErrorHandler
     _OSCILLATOR_Initialize
     _PIN_MANAGER_Initialize
   _fill
     _memset
   _send_buf
     _EUSART2_Write
     _EUSART2_is_tx_done
   _send_pad
     _EUSART2_Write
     _EUSART2_is_tx_done

 Address spaces:
Name               Size   Autos  Total    Cost      Usage
BIGRAM             5FF      0       0      16        0.0%
EEDATA             100      0       0       0        0.0%
BITBANK5           100      0       0      14        0.0%
BANK5              100      0       0      15        0.0%
BITBANK4           100      0       0      12        0.0%
BANK4              100      0       0      13        0.0%
BITBANK3           100      0       0      10        0.0%
BANK3              100      0       0      11        0.0%
BITBANK2           100      0       0       7        0.0%
BANK2              100      0       0       8        0.0%
BITBANK1           100      0       0       5        0.0%
BANK1              100      0       0       6        0.0%
BITBANK0            A0      0       0       3        0.0%
BANK0               A0      0       0       4        0.0%
BITCOMRAM           5F      0       0       0        0.0%
COMRAM              5F     14      29       1       43.2%
BITSFR_1             0      0       0     200        0.0%
SFR_1                0      0       0     200        0.0%
BITSFR               0      0       0     200        0.0%
SFR                  0      0       0     200        0.0%
STACK                0      0       0       2        0.0%
NULL                 0      0       0       0        0.0%
ABS                  0      0      29       9        0.0%
DATA                 0      0      29      17        0.0%
CODE                 0      0       0       0        0.0%


Microchip Technology PIC18 Macro Assembler V2.10 build 88905656 
Symbol Table                                                                                   Fri Jan 03 00:28:35 2020

                                            l43 7CEC                                              l70 7C98  
                                            l54 7C82                                              l91 7C52  
                                            l67 7C86                                              l94 7C3E  
                                            l88 7C48                                              u10 7C80  
                                            u11 7C7A                                              u20 7C94  
                                            u21 7C90                                              u16 7C82  
                                  __CFG_CP0$OFF 000000                                    __CFG_CP1$OFF 000000  
                                  __CFG_CP2$OFF 000000                                    __CFG_CP3$OFF 000000  
                                   __CFG_LVP$ON 000000                                             l112 7C60  
                                           l109 7C6E                                             l151 7D2C  
                                           l172 7E1C                                             l180 7D70  
                                           l188 7DC0                                             l911 7CEE  
                                           l903 7C70                                             l921 7C54  
                                           l913 7D06                                             l915 7D08  
                                           l907 7C86                                             l917 7D0A  
                                           l909 7C94                                             l919 7D2A  
                                           l981 7D2E                                             l879 7FFE  
                                           l991 7D40                                             l993 7D5C  
                                           l995 7D72                                             l987 7D36  
                                           l989 7D3C                                    __CFG_CPB$OFF 000000  
                                           u110 7D5C                                             u111 7D58  
                                           u200 7EE6                                             u120 7D70  
                                           u201 7EE2                                             u121 7D6C  
                                           u210 7F58                                             u130 7DAC  
                                           u211 7F54                                             u131 7DA8  
                                           u220 7F9E                                             u140 7DC0  
                                           u221 7F9A                                             u141 7DBC  
                                           u230 7FFE                                             u231 7FFA  
                                           u240 7E1C                                             u241 7E18  
                                           u250 7E50                                             u251 7E4C  
                                           u260 7E62                                             u261 7E5E  
                                           u190 7EA4                                             u191 7EA0  
                                  __CFG_CPD$OFF 000000                                             u277 7E76  
        __end_of_EUSART2_SetFramingErrorHandler 7C4A         __size_of_EUSART2_SetFramingErrorHandler 000A  
                _EUSART2_SetFramingErrorHandler 7C40                                             wreg 000FE8  
                                    _TXSTA2bits 000F72                                            l1001 7D7A  
                                          l1003 7D8C                                            l1101 7C62  
                                          l1005 7D90                                            l1103 7C6A  
                                          l1111 7DFA                                            l1007 7DAC  
                                          l1113 7DFE                                            l1105 7DC2  
                                          l1121 7E2A                                            l1107 7DDE  
                                          l1131 7E62                                            l1123 7E34  
                                          l1115 7E1E                                            l1053 7C40  
                                          l1061 7CC4                                            l1109 7DEA  
                                          l1133 7E6A                                            l1125 7E38  
                                          l1117 7E22                                            l1055 7C4A  
                                          l1063 7CD0                                            l1135 7E6C  
                                          l1127 7E3C                                            l1119 7E26  
                                          l1057 7C36                                            l1065 7CDC  
                                          l1081 7F42                                            l1073 7EA8  
                                          l1129 7E50                                            l1067 7CE8  
                                          l1059 7CB0                                            l1091 7FA2  
                                          l1075 7EB4                                            l1093 7FD6  
                                          l1085 7F5C                                            l1069 7E8A  
                                          l1095 7FE2                                            l1087 7F88  
                                          l1079 7EEA                                            l1097 7FE8  
                                          l1099 7FEC                                            _LATA 000F89  
                                          _LATB 000F8A                                            _LATC 000F8B  
                                          _LATD 000F8C                                            _LATE 000F8D  
                                          _WPUB 000F61                                   _EUSART2_Write 7C84  
                                          _data 0016                                            _fill 7DC2  
                                          _main 7E1E                                            fsr2h 000FDA  
                                          indf2 000FDF                                            fsr2l 000FD9  
                                 __CFG_BORV$190 000000                                            start 0000  
                                 __CFG_IESO$OFF 000000                                    ___param_bank 000000  
                __size_of_OSCILLATOR_Initialize 000E                   __end_of_OSCILLATOR_Initialize 7C62  
                                         ?_fill 000D                                           ?_main 0001  
                                __CFG_DEBUG$OFF 000000                                           _TRISA 000F92  
                                         _TRISB 000F93                                           _TRISC 000F94  
                                         _TRISD 000F95                                           _TRISE 000F96  
                                 __CFG_WRT0$OFF 000000                                   __CFG_WRT1$OFF 000000  
                                 __CFG_WRT2$OFF 000000                                   __CFG_WRT3$OFF 000000  
                                __CFG_EBTR0$OFF 000000                                  __CFG_FCMEN$OFF 000000  
                                __CFG_EBTR1$OFF 000000                                  __CFG_EBTR2$OFF 000000  
                                __CFG_EBTR3$OFF 000000                                   __CFG_WRTB$OFF 000000  
                                 __CFG_WRTC$OFF 000000                                   __CFG_WRTD$OFF 000000  
                                __CFG_EBTRB$OFF 000000                              __CFG_MCLRE$EXTMCLR 000000  
                                         fill@i 0010                                           fill@x 000D  
                                ?_EUSART2_Write 0001                                           status 000FD8  
                                __CFG_HFOFST$ON 000000                     __size_of_EUSART2_is_tx_done 0014  
                                __CFG_PBADEN$ON 000000                                 __initialization 7C9A  
                                  __end_of_fill 7E1E                                    __end_of_main 7E8A  
                                        ??_fill 000F                                          ??_main 0012  
                                 __activetblptr 000002                     _EUSART2_DefaultErrorHandler 000000  
                    __end_of_EUSART2_Initialize 7CEE                                          _ANSELA 000F38  
                                        _ANSELB 000F39                                          _ANSELC 000F3A  
                                        _ANSELD 000F3B                                          _ANSELE 000F3C  
                                __CFG_WDTEN$OFF 000000                                          _RCREG2 000F74  
                                        _RCSTA2 000F71                                          _OSCCON 000FD3  
                                        _SPBRG2 000F75                                          _TXREG2 000F73  
                                        _TXSTA2 000F72                                  __CFG_XINST$OFF 000000  
                                __CFG_STVREN$ON 000000                                          _memset 7E8A  
                                        clear_0 7CA0                     _EUSART2_FramingErrorHandler 0028  
                              __end_of_send_buf 7DC2                                __end_of_send_pad 7D72  
                                        tblptru 000FF8                                 ??_EUSART2_Write 0001  
                             _SYSTEM_Initialize 7C62                                      __accesstop 0060  
                       __end_of__initialization 7CA6                              ?_SYSTEM_Initialize 0001  
                                 ___rparam_used 000001                                  __pcstackCOMRAM 0001  
                           ??_SYSTEM_Initialize 0003                        ?_EUSART2_SetErrorHandler 0001  
                     __end_of_SYSTEM_Initialize 7C70                                 __CFG_PLLCFG$OFF 000000  
              ??_EUSART2_SetFramingErrorHandler 0003                 ?_EUSART2_SetFramingErrorHandler 0001  
                                    __pnvCOMRAM 0024                              __CFG_CCP2MX$PORTC1 000000  
                            __CFG_CCP3MX$PORTB5 000000                                         ?_memset 0001  
                                       _OSCCON2 000FD2                                         _OSCTUNE 000F9B  
                                       _SPBRGH2 000F76                                 __CFG_PWRTEN$OFF 000000  
                                       __Hparam 0000                                       ?_send_buf 0001  
                                     ?_send_pad 0001                                         __Lparam 0000  
                                       __pcinit 7C9A                 __end_of_EUSART2_SetErrorHandler 7C40  
                               __size_of_memset 0176                                         __ramtop 0600  
                                       __ptext0 7E1E                                         __ptext1 7D2E  
                                       __ptext2 7D72                                         __ptext3 7C70  
                                       __ptext4 7C84                                         __ptext5 7DC2  
                                       __ptext6 7E8A                                         __ptext7 7C62  
                                       __ptext8 7CEE                                         __ptext9 7C54  
            _EUSART2_DefaultOverrunErrorHandler 000000                           _OSCILLATOR_Initialize 7C54  
                      ??_PIN_MANAGER_Initialize 0001                      __size_of_SYSTEM_Initialize 000E  
                          end_of_initialization 7CA6                      __end_of_EUSART2_is_tx_done 7C84  
                                       memset@c 0003                                         memset@k 0009  
                                       memset@n 0005                                         memset@s 000B  
                                 __Lmediumconst 0000                                      ??_send_buf 0002  
                                    ??_send_pad 0002                              _EUSART2_Initialize 7CB0  
                                       postinc0 000FEE                             ?_EUSART2_Initialize 0001  
                          ??_EUSART2_Initialize 0003                          ?_OSCILLATOR_Initialize 0001  
                                __end_of_memset 8000                             start_initialization 7C9A  
               __size_of_PIN_MANAGER_Initialize 0040                           __end_of_EUSART2_Write 7C9A  
              __size_of_EUSART2_SetErrorHandler 000A          __end_of_EUSART2_SetOverrunErrorHandler 7C54  
       __size_of_EUSART2_SetOverrunErrorHandler 000A                  _EUSART2_SetOverrunErrorHandler 7C4A  
                                      ??_memset 0007                                      memset@dest 0001  
                                   __pbssCOMRAM 0015                             EUSART2_Write@txData 0001  
                        _PIN_MANAGER_Initialize 7CEE                               __size_of_send_buf 0050  
                             __size_of_send_pad 0044                                __CFG_PRICLKEN$ON 000000  
                                      _BAUDCON2 000F70         EUSART2_SetErrorHandler@interruptHandler 0001  
                                      _PIR3bits 000FA4                                __CFG_WDTPS$32768 000000  
                            _EUSART2_is_tx_done 7C70                             ?_EUSART2_is_tx_done 0001  
                                     main@index 0014                                     _INTCON2bits 000FF1  
                       _EUSART2_SetErrorHandler 7C36                     _EUSART2_OverrunErrorHandler 0026  
                          ??_EUSART2_is_tx_done 0001                                        __Hrparam 0000  
                                      __Lrparam 0000                              __CFG_BOREN$SBORDIS 000000  
                             __CFG_P2BMX$PORTD2 000000                         ??_OSCILLATOR_Initialize 0001  
                          _EUSART2_ErrorHandler 0024                                        __ptext10 7CB0  
                                      __ptext11 7C4A                                        __ptext12 7C40  
                                      __ptext13 7C36                                       send_buf@i 0002  
                                     send_pad@i 0002                     __size_of_EUSART2_Initialize 003E  
                                 __size_of_fill 005C                                   __size_of_main 006C  
            _EUSART2_DefaultFramingErrorHandler 000000                                        _send_buf 7D72  
                                      _send_pad 7D2E  EUSART2_SetOverrunErrorHandler@interruptHandler 0001  
              ??_EUSART2_SetOverrunErrorHandler 0003                 ?_EUSART2_SetOverrunErrorHandler 0001  
                                    _INTCONbits 000FF2                       ??_EUSART2_SetErrorHandler 0003  
                       ?_PIN_MANAGER_Initialize 0001                                      _RCSTA2bits 000F71  
EUSART2_SetFramingErrorHandler@interruptHandler 0001                          __size_of_EUSART2_Write 0016  
                             __CFG_T3CMX$PORTC0 000000                  __end_of_PIN_MANAGER_Initialize 7D2E  
                            _eusart2RxLastError 0015                               __CFG_FOSC$INTIO67 000000  
