

Microchip MPLAB XC8 Assembler V2.10 build 88905656 
                                                                                               Wed Jan 01 23:35:55 2020

Microchip MPLAB XC8 C Compiler v2.10 (Free license) build 20190730164152 Og1 
     1                           	processor	18F45K22
     2                           	fnconf	rparam,??,?,0
     3                           	opt	pw 120
     4                           	opt	flic
     5                           	psect	smallconst,global,reloc=2,class=SMALLCONST,delta=1,noexec
     6                           	psect	nvBANK0,global,class=BANK0,space=1,delta=1,lowdata,noexec
     7                           	psect	cinit,global,reloc=2,class=CODE,delta=1
     8                           	psect	bssCOMRAM,global,class=COMRAM,space=1,delta=1,noexec
     9                           	psect	bssBANK0,global,class=BANK0,space=1,delta=1,lowdata,noexec
    10                           	psect	cstackBANK0,global,class=BANK0,space=1,delta=1,noexec
    11                           	psect	cstackCOMRAM,global,class=COMRAM,space=1,delta=1,noexec
    12                           	psect	text0,global,reloc=2,class=CODE,delta=1
    13                           	psect	text1,global,reloc=2,class=CODE,delta=1,group=2
    14                           	psect	text2,global,reloc=2,class=CODE,delta=1,group=2
    15                           	psect	text3,global,reloc=2,class=CODE,delta=1,group=2
    16                           	psect	text4,global,reloc=2,class=CODE,delta=1,group=2
    17                           	psect	text5,global,reloc=2,class=CODE,delta=1,group=1
    18                           	psect	text6,global,reloc=2,class=CODE,delta=1,group=1
    19                           	psect	text7,global,reloc=2,class=CODE,delta=1,group=1
    20                           	psect	text8,global,reloc=2,class=CODE,delta=1,group=1
    21                           	psect	text9,global,reloc=2,class=CODE,delta=1,group=2
    22                           	psect	text10,global,reloc=2,class=CODE,delta=1,group=1
    23                           	psect	text11,global,reloc=2,class=CODE,delta=1,group=1
    24                           	psect	text12,global,reloc=2,class=CODE,delta=1,group=1
    25                           	psect	text13,global,reloc=2,class=CODE,delta=1
    26                           	psect	text14,global,reloc=2,class=CODE,delta=1
    27                           	psect	text15,global,reloc=2,class=CODE,delta=1
    28                           	psect	text16,global,reloc=2,class=CODE,delta=1
    29                           	psect	text17,global,reloc=2,class=CODE,delta=1
    30                           	psect	text18,global,reloc=2,class=CODE,delta=1
    31                           	psect	text19,global,reloc=2,class=CODE,delta=1
    32                           	psect	text20,global,reloc=2,class=CODE,delta=1
    33                           	psect	text21,global,reloc=2,class=CODE,delta=1
    34                           	psect	intsave_regs,global,class=BIGRAM,space=1,delta=1,noexec
    35                           	psect	rparam,global,class=COMRAM,space=1,delta=1,noexec
    36  0000                     
    37                           ; Version 2.10
    38                           ; Generated 31/07/2019 GMT
    39                           ; 
    40                           ; Copyright © 2019, Microchip Technology Inc. and its subsidiaries ("Microchip")
    41                           ; All rights reserved.
    42                           ; 
    43                           ; This software is developed by Microchip Technology Inc. and its subsidiaries ("Microch
      +                          ip").
    44                           ; 
    45                           ; Redistribution and use in source and binary forms, with or without modification, are
    46                           ; permitted provided that the following conditions are met:
    47                           ; 
    48                           ;     1. Redistributions of source code must retain the above copyright notice, this lis
      +                          t of
    49                           ;        conditions and the following disclaimer.
    50                           ; 
    51                           ;     2. Redistributions in binary form must reproduce the above copyright notice, this 
      +                          list
    52                           ;        of conditions and the following disclaimer in the documentation and/or other
    53                           ;        materials provided with the distribution.
    54                           ; 
    55                           ;     3. Microchip's name may not be used to endorse or promote products derived from th
      +                          is
    56                           ;        software without specific prior written permission.
    57                           ; 
    58                           ; THIS SOFTWARE IS PROVIDED BY MICROCHIP "AS IS" AND ANY EXPRESS OR IMPLIED WARRANTIES,
    59                           ; INCLUDING, BUT NOT LIMITED TO, THE IMPLIED WARRANTIES OF MERCHANTABILITY AND FITNESS F
      +                          OR
    60                           ; PURPOSE ARE DISCLAIMED.  IN NO EVENT SHALL MICROCHIP BE LIABLE FOR ANY DIRECT, INDIREC
      +                          T,
    61                           ; INCIDENTAL, SPECIAL, EXEMPLARY, OR CONSEQUENTIAL DAMAGES (INCLUDING BUT NOT LIMITED TO
    62                           ; PROCUREMENT OF SUBSTITUTE GOODS OR SERVICES; LOSS OF USE, DATA OR PROFITS; OR BUSINESS
    63                           ; INTERRUPTION) HOWSOEVER CAUSED AND ON ANY THEORY OF LIABILITY, WHETHER IN CONTRACT, ST
      +                          RICT
    64                           ; LIABILITY, OR TORT (INCLUDING NEGLIGENCE OR OTHERWISE) ARISING IN ANY WAY OUT OF THE U
      +                          SE OF
    65                           ; THIS SOFTWARE, EVEN IF ADVISED OF THE POSSIBILITY OF SUCH DAMAGE.
    66                           ; 
    67                           ; 
    68                           ; Code-generator required, PIC18F45K22 Definitions
    69                           ; 
    70                           ; SFR Addresses
    71  0000                     
    72 ;; Function _EUSART2_DefaultFramingErrorHandler is unused but had its address taken
    73  0000                     
    74 ;; Function _EUSART2_DefaultOverrunErrorHandler is unused but had its address taken
    75  0000                     
    76 ;; Function _EUSART2_DefaultErrorHandler is unused but had its address taken
    77  0000                     
    78                           	psect	smallconst
    79  000600                     __psmallconst:
    80                           	opt callstack 0
    81  000600  00                 	db	0
    82  000601  6C3C               	dw	27708
    83  000603  3636               	dw	13878
    84  000605                     __end_of_S4:
    85                           	opt callstack 0
    86  000605  07CF               	dw	1999
    87  000607  B950               	dw	47440
    88  000609                     __end_of_S3:
    89                           	opt callstack 0
    90  000609  8884               	dw	34948
    91  00060B  3C08               	dw	15368
    92  00060D                     __end_of_S2:
    93                           	opt callstack 0
    94  00060D  AAAB               	dw	43691
    95  00060F  BE2A               	dw	48682
    96  000611                     __end_of_S1:
    97                           	opt callstack 0
    98  000611  85A3               	dw	34211
    99  000613  3288               	dw	12936
   100  000615                     __end_of_pio2_1t:
   101                           	opt callstack 0
   102  000615  0FDA               	dw	4058
   103  000617  3FC9               	dw	16329
   104  000619                     __end_of_pio2_1:
   105                           	opt callstack 0
   106  000619  F983               	dw	63875
   107  00061B  3F22               	dw	16162
   108  00061D                     __end_of_invpio2:
   109                           	opt callstack 0
   110  00061D  0000               	dw	0
   111  00061F  3F00               	dw	16128
   112  000621                     __end_of_half:
   113                           	opt callstack 0
   114  000621  0000               	dw	0
   115  000623  4B40               	dw	19264
   116  000625                     __end_of_toint:
   117                           	opt callstack 0
   118  000625  9A17               	dw	39447
   119  000627  37CC               	dw	14284
   120  000629                     __end_of_C3:
   121                           	opt callstack 0
   122  000629  043F               	dw	1087
   123  00062B  BAB6               	dw	47798
   124  00062D                     __end_of_C2:
   125                           	opt callstack 0
   126  00062D  AA9F               	dw	43679
   127  00062F  3D2A               	dw	15658
   128  000631                     __end_of_C1:
   129                           	opt callstack 0
   130  000631  0000               	dw	0
   131  000633  BF00               	dw	48896
   132  000635                     __end_of_C0:
   133                           	opt callstack 0
   134  000635  0FDB               	dw	4059
   135  000637  40C9               	dw	16585
   136  000639                     __end_of_c4pio2:
   137                           	opt callstack 0
   138  000639  CBE4               	dw	52196
   139  00063B  4096               	dw	16534
   140  00063D                     __end_of_c3pio2:
   141                           	opt callstack 0
   142  00063D  0FDB               	dw	4059
   143  00063F  4049               	dw	16457
   144  000641                     __end_of_c2pio2:
   145                           	opt callstack 0
   146  000641  0FDB               	dw	4059
   147  000643  3FC9               	dw	16329
   148  000645                     __end_of_c1pio2:
   149                           	opt callstack 0
   150  000645  00                 	db	0	; dummy byte at the end
   151  0000                     
   152                           	psect	nvBANK0
   153  0000D7                     __pnvBANK0:
   154                           	opt callstack 0
   155  0000D7                     _EUSART2_ErrorHandler:
   156                           	opt callstack 0
   157  0000D7                     	ds	2
   158  0000D9                     _EUSART2_OverrunErrorHandler:
   159                           	opt callstack 0
   160  0000D9                     	ds	2
   161  0000DB                     _EUSART2_FramingErrorHandler:
   162                           	opt callstack 0
   163  0000DB                     	ds	2
   164  0000                     _ANSELA	set	3896
   165  0000                     _ANSELE	set	3900
   166  0000                     _ANSELB	set	3897
   167  0000                     _ANSELC	set	3898
   168  0000                     _ANSELD	set	3899
   169  0000                     _INTCONbits	set	4082
   170  0000                     _INTCON2bits	set	4081
   171  0000                     _WPUB	set	3937
   172  0000                     _TRISD	set	3989
   173  0000                     _TRISC	set	3988
   174  0000                     _TRISB	set	3987
   175  0000                     _TRISA	set	3986
   176  0000                     _TRISE	set	3990
   177  0000                     _LATC	set	3979
   178  0000                     _LATB	set	3978
   179  0000                     _LATA	set	3977
   180  0000                     _LATD	set	3980
   181  0000                     _LATE	set	3981
   182  0000                     _OSCTUNE	set	3995
   183  0000                     _OSCCON2	set	4050
   184  0000                     _OSCCON	set	4051
   185  0000                     _TXREG2	set	3955
   186  0000                     _RCREG2	set	3956
   187  0000                     _RCSTA2bits	set	3953
   188  0000                     _TXSTA2bits	set	3954
   189  0000                     _PIR3bits	set	4004
   190  0000                     _SPBRGH2	set	3958
   191  0000                     _SPBRG2	set	3957
   192  0000                     _TXSTA2	set	3954
   193  0000                     _RCSTA2	set	3953
   194  0000                     _BAUDCON2	set	3952
   195                           
   196                           ; #config settings
   197  0000                     
   198                           	psect	cinit
   199  0025F6                     __pcinit:
   200                           	opt callstack 0
   201  0025F6                     start_initialization:
   202                           	opt callstack 0
   203  0025F6                     __initialization:
   204                           	opt callstack 0
   205                           
   206                           ; Clear objects allocated to BANK0 (8 bytes)
   207  0025F6  EE00  F0CF         	lfsr	0,__pbssBANK0
   208  0025FA  0E08               	movlw	8
   209  0025FC                     clear_0:
   210  0025FC  6AEE               	clrf	postinc0,c
   211  0025FE  06E8               	decf	wreg,f,c
   212  002600  E1FD               	bnz	clear_0
   213                           
   214                           ; Clear objects allocated to COMRAM (1 bytes)
   215  002602  6A5F               	clrf	__pbssCOMRAM& (0+255),c
   216  002604                     end_of_initialization:
   217                           	opt callstack 0
   218  002604                     __end_of__initialization:
   219                           	opt callstack 0
   220  002604  0E00               	movlw	low (__Lmediumconst shr (0+16))
   221  002606  6EF8               	movwf	tblptru,c
   222  002608  0100               	movlb	0
   223  00260A  EFED  F011         	goto	_main	;jump to C main() function
   224                           
   225                           	psect	bssCOMRAM
   226  00005F                     __pbssCOMRAM:
   227                           	opt callstack 0
   228  00005F                     _eusart2RxLastError:
   229                           	opt callstack 0
   230  00005F                     	ds	1
   231                           
   232                           	psect	bssBANK0
   233  0000CF                     __pbssBANK0:
   234                           	opt callstack 0
   235  0000CF                     fabsf@F463:
   236                           	opt callstack 0
   237  0000CF                     	ds	4
   238  0000D3                     ___rem_pio2f@F530:
   239                           	opt callstack 0
   240  0000D3                     	ds	4
   241                           
   242                           	psect	cstackBANK0
   243  000060                     __pcstackBANK0:
   244                           	opt callstack 0
   245  000060                     ___cosdf@r:
   246                           	opt callstack 0
   247                           
   248                           ; 4 bytes @ 0x0
   249  000060                     	ds	4
   250  000064                     ___cosdf$1162:
   251                           	opt callstack 0
   252                           
   253                           ; 4 bytes @ 0x4
   254  000064                     	ds	4
   255  000068                     ___cosdf$1163:
   256                           	opt callstack 0
   257                           
   258                           ; 4 bytes @ 0x8
   259  000068                     	ds	4
   260  00006C                     ___cosdf$1164:
   261                           	opt callstack 0
   262                           
   263                           ; 4 bytes @ 0xC
   264  00006C                     	ds	4
   265  000070                     ___cosdf@w:
   266                           	opt callstack 0
   267                           
   268                           ; 4 bytes @ 0x10
   269  000070                     	ds	4
   270  000074                     ___cosdf@z:
   271                           	opt callstack 0
   272                           
   273                           ; 4 bytes @ 0x14
   274  000074                     	ds	4
   275  000078                     ?___flneg:
   276                           	opt callstack 0
   277  000078                     ___flneg@f1:
   278                           	opt callstack 0
   279                           
   280                           ; 4 bytes @ 0x18
   281  000078                     	ds	4
   282  00007C                     ?___rem_pio2f:
   283                           	opt callstack 0
   284  00007C                     ?___sindf:
   285                           	opt callstack 0
   286  00007C                     ___rem_pio2f@x:
   287                           	opt callstack 0
   288  00007C                     ___sindf@x:
   289                           	opt callstack 0
   290                           
   291                           ; 4 bytes @ 0x1C
   292  00007C                     	ds	4
   293  000080                     ___rem_pio2f@y:
   294                           	opt callstack 0
   295  000080                     ___sindf@r:
   296                           	opt callstack 0
   297                           
   298                           ; 4 bytes @ 0x20
   299  000080                     	ds	2
   300  000082                     ___rem_pio2f@ty:
   301                           	opt callstack 0
   302                           
   303                           ; 4 bytes @ 0x22
   304  000082                     	ds	2
   305  000084                     ___sindf@w:
   306                           	opt callstack 0
   307                           
   308                           ; 4 bytes @ 0x24
   309  000084                     	ds	2
   310  000086                     ___rem_pio2f@ix:
   311                           	opt callstack 0
   312                           
   313                           ; 4 bytes @ 0x26
   314  000086                     	ds	2
   315  000088                     ___sindf$1166:
   316                           	opt callstack 0
   317                           
   318                           ; 4 bytes @ 0x28
   319  000088                     	ds	2
   320  00008A                     ___rem_pio2f@sign:
   321                           	opt callstack 0
   322                           
   323                           ; 2 bytes @ 0x2A
   324  00008A                     	ds	2
   325  00008C                     ___rem_pio2f@u:
   326                           	opt callstack 0
   327  00008C                     ___sindf$1167:
   328                           	opt callstack 0
   329                           
   330                           ; 4 bytes @ 0x2C
   331  00008C                     	ds	4
   332  000090                     ___rem_pio2f$1165:
   333                           	opt callstack 0
   334  000090                     ___sindf$1168:
   335                           	opt callstack 0
   336                           
   337                           ; 4 bytes @ 0x30
   338  000090                     	ds	4
   339  000094                     ___rem_pio2f@fn:
   340                           	opt callstack 0
   341  000094                     ___sindf@s:
   342                           	opt callstack 0
   343                           
   344                           ; 4 bytes @ 0x34
   345  000094                     	ds	4
   346  000098                     ___rem_pio2f@t:
   347                           	opt callstack 0
   348  000098                     ___sindf@z:
   349                           	opt callstack 0
   350                           
   351                           ; 4 bytes @ 0x38
   352  000098                     	ds	4
   353  00009C                     ___rem_pio2f@n:
   354                           	opt callstack 0
   355                           
   356                           ; 4 bytes @ 0x3C
   357  00009C                     	ds	4
   358  0000A0                     ?_cosf:
   359                           	opt callstack 0
   360  0000A0                     cosf@x:
   361                           	opt callstack 0
   362                           
   363                           ; 4 bytes @ 0x40
   364  0000A0                     	ds	4
   365  0000A4                     ??_cosf:
   366                           
   367                           ; 1 bytes @ 0x44
   368  0000A4                     	ds	4
   369  0000A8                     cosf@n:
   370                           	opt callstack 0
   371                           
   372                           ; 4 bytes @ 0x48
   373  0000A8                     	ds	4
   374  0000AC                     cosf@__xc8_float_word:
   375                           	opt callstack 0
   376                           
   377                           ; 4 bytes @ 0x4C
   378  0000AC                     	ds	4
   379  0000B0                     _cosf$897:
   380                           	opt callstack 0
   381                           
   382                           ; 4 bytes @ 0x50
   383  0000B0                     	ds	4
   384  0000B4                     _cosf$898:
   385                           	opt callstack 0
   386                           
   387                           ; 4 bytes @ 0x54
   388  0000B4                     	ds	4
   389  0000B8                     _cosf$1161:
   390                           	opt callstack 0
   391                           
   392                           ; 4 bytes @ 0x58
   393  0000B8                     	ds	4
   394  0000BC                     cosf@sign:
   395                           	opt callstack 0
   396                           
   397                           ; 2 bytes @ 0x5C
   398  0000BC                     	ds	2
   399  0000BE                     cosf@y:
   400                           	opt callstack 0
   401                           
   402                           ; 4 bytes @ 0x5E
   403  0000BE                     	ds	4
   404  0000C2                     cosf@ix:
   405                           	opt callstack 0
   406                           
   407                           ; 4 bytes @ 0x62
   408  0000C2                     	ds	4
   409  0000C6                     _main$1159:
   410                           	opt callstack 0
   411                           
   412                           ; 4 bytes @ 0x66
   413  0000C6                     	ds	4
   414  0000CA                     _main$1160:
   415                           	opt callstack 0
   416                           
   417                           ; 4 bytes @ 0x6A
   418  0000CA                     	ds	4
   419  0000CE                     main@data:
   420                           	opt callstack 0
   421                           
   422                           ; 1 bytes @ 0x6E
   423  0000CE                     	ds	1
   424                           
   425                           	psect	cstackCOMRAM
   426  000001                     __pcstackCOMRAM:
   427                           	opt callstack 0
   428  000001                     ?_fabsf:
   429                           	opt callstack 0
   430  000001                     ?___xxtofl:
   431                           	opt callstack 0
   432  000001                     EUSART2_Write@txData:
   433                           	opt callstack 0
   434  000001                     EUSART2_SetFramingErrorHandler@interruptHandler:
   435                           	opt callstack 0
   436  000001                     EUSART2_SetOverrunErrorHandler@interruptHandler:
   437                           	opt callstack 0
   438  000001                     EUSART2_SetErrorHandler@interruptHandler:
   439                           	opt callstack 0
   440  000001                     ___xxtofl@val:
   441                           	opt callstack 0
   442  000001                     fabsf@x:
   443                           	opt callstack 0
   444                           
   445                           ; 4 bytes @ 0x0
   446  000001                     	ds	2
   447  000003                     
   448                           ; 1 bytes @ 0x2
   449  000003                     	ds	2
   450  000005                     ??___xxtofl:
   451  000005                     fabsf@u:
   452                           	opt callstack 0
   453                           
   454                           ; 4 bytes @ 0x4
   455  000005                     	ds	4
   456  000009                     ___xxtofl@sign:
   457                           	opt callstack 0
   458                           
   459                           ; 1 bytes @ 0x8
   460  000009                     	ds	1
   461  00000A                     ___xxtofl@exp:
   462                           	opt callstack 0
   463                           
   464                           ; 1 bytes @ 0x9
   465  00000A                     	ds	1
   466  00000B                     ___xxtofl@arg:
   467                           	opt callstack 0
   468                           
   469                           ; 4 bytes @ 0xA
   470  00000B                     	ds	4
   471  00000F                     ?___fldiv:
   472                           	opt callstack 0
   473  00000F                     ___fldiv@b:
   474                           	opt callstack 0
   475                           
   476                           ; 4 bytes @ 0xE
   477  00000F                     	ds	4
   478  000013                     ___fldiv@a:
   479                           	opt callstack 0
   480                           
   481                           ; 4 bytes @ 0x12
   482  000013                     	ds	4
   483  000017                     ??___fldiv:
   484                           
   485                           ; 1 bytes @ 0x16
   486  000017                     	ds	4
   487  00001B                     ___fldiv@rem:
   488                           	opt callstack 0
   489                           
   490                           ; 4 bytes @ 0x1A
   491  00001B                     	ds	4
   492  00001F                     ___fldiv@sign:
   493                           	opt callstack 0
   494                           
   495                           ; 1 bytes @ 0x1E
   496  00001F                     	ds	1
   497  000020                     ___fldiv@new_exp:
   498                           	opt callstack 0
   499                           
   500                           ; 2 bytes @ 0x1F
   501  000020                     	ds	2
   502  000022                     ___fldiv@grs:
   503                           	opt callstack 0
   504                           
   505                           ; 4 bytes @ 0x21
   506  000022                     	ds	4
   507  000026                     ___fldiv@bexp:
   508                           	opt callstack 0
   509                           
   510                           ; 1 bytes @ 0x25
   511  000026                     	ds	1
   512  000027                     ___fldiv@aexp:
   513                           	opt callstack 0
   514                           
   515                           ; 1 bytes @ 0x26
   516  000027                     	ds	1
   517  000028                     ?___flmul:
   518                           	opt callstack 0
   519  000028                     ___flmul@b:
   520                           	opt callstack 0
   521                           
   522                           ; 4 bytes @ 0x27
   523  000028                     	ds	4
   524  00002C                     ___flmul@a:
   525                           	opt callstack 0
   526                           
   527                           ; 4 bytes @ 0x2B
   528  00002C                     	ds	4
   529  000030                     ??___flmul:
   530                           
   531                           ; 1 bytes @ 0x2F
   532  000030                     	ds	4
   533  000034                     ___flmul@sign:
   534                           	opt callstack 0
   535                           
   536                           ; 1 bytes @ 0x33
   537  000034                     	ds	1
   538  000035                     ___flmul@grs:
   539                           	opt callstack 0
   540                           
   541                           ; 4 bytes @ 0x34
   542  000035                     	ds	4
   543  000039                     ___flmul@aexp:
   544                           	opt callstack 0
   545                           
   546                           ; 1 bytes @ 0x38
   547  000039                     	ds	1
   548  00003A                     ___flmul@bexp:
   549                           	opt callstack 0
   550                           
   551                           ; 1 bytes @ 0x39
   552  00003A                     	ds	1
   553  00003B                     ___flmul@prod:
   554                           	opt callstack 0
   555                           
   556                           ; 4 bytes @ 0x3A
   557  00003B                     	ds	4
   558  00003F                     ___flmul@temp:
   559                           	opt callstack 0
   560                           
   561                           ; 2 bytes @ 0x3E
   562  00003F                     	ds	2
   563  000041                     ?___fladd:
   564                           	opt callstack 0
   565  000041                     ___fladd@b:
   566                           	opt callstack 0
   567                           
   568                           ; 4 bytes @ 0x40
   569  000041                     	ds	4
   570  000045                     ___fladd@a:
   571                           	opt callstack 0
   572                           
   573                           ; 4 bytes @ 0x44
   574  000045                     	ds	4
   575  000049                     ??___fladd:
   576                           
   577                           ; 1 bytes @ 0x48
   578  000049                     	ds	4
   579  00004D                     ___fladd@signs:
   580                           	opt callstack 0
   581                           
   582                           ; 1 bytes @ 0x4C
   583  00004D                     	ds	1
   584  00004E                     ___fladd@aexp:
   585                           	opt callstack 0
   586                           
   587                           ; 1 bytes @ 0x4D
   588  00004E                     	ds	1
   589  00004F                     ___fladd@bexp:
   590                           	opt callstack 0
   591                           
   592                           ; 1 bytes @ 0x4E
   593  00004F                     	ds	1
   594  000050                     ___fladd@grs:
   595                           	opt callstack 0
   596                           
   597                           ; 1 bytes @ 0x4F
   598  000050                     	ds	1
   599  000051                     ?___flsub:
   600                           	opt callstack 0
   601  000051                     ?___cosdf:
   602                           	opt callstack 0
   603  000051                     ?___fltol:
   604                           	opt callstack 0
   605  000051                     ___fltol@f1:
   606                           	opt callstack 0
   607  000051                     ___flsub@b:
   608                           	opt callstack 0
   609  000051                     ___cosdf@x:
   610                           	opt callstack 0
   611                           
   612                           ; 4 bytes @ 0x50
   613  000051                     	ds	4
   614  000055                     ??___fltol:
   615  000055                     ___flsub@a:
   616                           	opt callstack 0
   617                           
   618                           ; 4 bytes @ 0x54
   619  000055                     	ds	4
   620  000059                     ___fltol@sign1:
   621                           	opt callstack 0
   622                           
   623                           ; 1 bytes @ 0x58
   624  000059                     	ds	1
   625  00005A                     ___fltol@exp1:
   626                           	opt callstack 0
   627                           
   628                           ; 1 bytes @ 0x59
   629  00005A                     	ds	1
   630  00005B                     ??___rem_pio2f:
   631                           
   632                           ; 1 bytes @ 0x5A
   633  00005B                     	ds	4
   634  00005F                     
   635                           ; 1 bytes @ 0x5E
   636 ;;
   637 ;;Main: autosize = 0, tempsize = 0, incstack = 0, save=0
   638 ;;
   639 ;; *************** function _main *****************
   640 ;; Defined at:
   641 ;;		line 4 in file "main.c"
   642 ;; Parameters:    Size  Location     Type
   643 ;;		None
   644 ;; Auto vars:     Size  Location     Type
   645 ;;  data            1  110[BANK0 ] unsigned char 
   646 ;; Return value:  Size  Location     Type
   647 ;;                  1    wreg      void 
   648 ;; Registers used:
   649 ;;		wreg, fsr2l, fsr2h, status,2, status,0, prodl, prodh, cstack
   650 ;; Tracked objects:
   651 ;;		On entry : 0/0
   652 ;;		On exit  : 0/0
   653 ;;		Unchanged: 0/0
   654 ;; Data sizes:     COMRAM   BANK0   BANK1   BANK2   BANK3   BANK4   BANK5
   655 ;;      Params:         0       0       0       0       0       0       0
   656 ;;      Locals:         0       9       0       0       0       0       0
   657 ;;      Temps:          0       0       0       0       0       0       0
   658 ;;      Totals:         0       9       0       0       0       0       0
   659 ;;Total ram usage:        9 bytes
   660 ;; Hardware stack levels required when called:    4
   661 ;; This function calls:
   662 ;;		_EUSART2_Write
   663 ;;		_EUSART2_is_tx_done
   664 ;;		_SYSTEM_Initialize
   665 ;;		___fldiv
   666 ;;		___flmul
   667 ;;		___fltol
   668 ;;		___xxtofl
   669 ;;		_cosf
   670 ;; This function is called by:
   671 ;;		Startup code after reset
   672 ;; This function uses a non-reentrant model
   673 ;;
   674                           
   675                           	psect	text0
   676  0023DA                     __ptext0:
   677                           	opt callstack 0
   678  0023DA                     _main:
   679                           	opt callstack 27
   680  0023DA                     
   681                           ;main.c: 6:     SYSTEM_Initialize();
   682  0023DA  EC1C  F013         	call	_SYSTEM_Initialize	;wreg free
   683  0023DE                     
   684                           ;main.c: 8:     uint8_t data=0;
   685  0023DE  0E00               	movlw	0
   686  0023E0  0100               	movlb	0	; () banked
   687  0023E2  6FCE               	movwf	main@data& (0+255),b
   688  0023E4                     l2663:
   689                           
   690                           ;main.c: 11:     {;main.c: 12:         EUSART2_Write((uint8_t)(200 * cosf(data/10.)));
   691  0023E4  0E00               	movlw	0
   692  0023E6  6E13               	movwf	___fldiv@a^0,c
   693  0023E8  0E00               	movlw	0
   694  0023EA  6E14               	movwf	(___fldiv@a+1)^0,c
   695  0023EC  0E20               	movlw	32
   696  0023EE  6E15               	movwf	(___fldiv@a+2)^0,c
   697  0023F0  0E41               	movlw	65
   698  0023F2  6E16               	movwf	(___fldiv@a+3)^0,c
   699  0023F4  0100               	movlb	0	; () banked
   700  0023F6  51CE               	movf	main@data& (0+255),w,b
   701  0023F8  6E01               	movwf	___xxtofl@val^0,c
   702  0023FA  6A02               	clrf	(___xxtofl@val+1)^0,c
   703  0023FC  6A03               	clrf	(___xxtofl@val+2)^0,c
   704  0023FE  6A04               	clrf	(___xxtofl@val+3)^0,c
   705  002400  0E01               	movlw	1
   706  002402  EC90  F010         	call	___xxtofl
   707  002406  C001  F00F         	movff	?___xxtofl,___fldiv@b
   708  00240A  C002  F010         	movff	?___xxtofl+1,___fldiv@b+1
   709  00240E  C003  F011         	movff	?___xxtofl+2,___fldiv@b+2
   710  002412  C004  F012         	movff	?___xxtofl+3,___fldiv@b+3
   711  002416  ECAB  F00C         	call	___fldiv	;wreg free
   712  00241A  C00F  F0C6         	movff	?___fldiv,_main$1159
   713  00241E  C010  F0C7         	movff	?___fldiv+1,_main$1159+1
   714  002422  C011  F0C8         	movff	?___fldiv+2,_main$1159+2
   715  002426  C012  F0C9         	movff	?___fldiv+3,_main$1159+3
   716  00242A                     
   717                           ;main.c: 11:     {;main.c: 12:         EUSART2_Write((uint8_t)(200 * cosf(data/10.)));
   718  00242A  C0C6  F0A0         	movff	_main$1159,cosf@x
   719  00242E  C0C7  F0A1         	movff	_main$1159+1,cosf@x+1
   720  002432  C0C8  F0A2         	movff	_main$1159+2,cosf@x+2
   721  002436  C0C9  F0A3         	movff	_main$1159+3,cosf@x+3
   722  00243A  EC23  F003         	call	_cosf	;wreg free
   723  00243E  C0A0  F0CA         	movff	?_cosf,_main$1160
   724  002442  C0A1  F0CB         	movff	?_cosf+1,_main$1160+1
   725  002446  C0A2  F0CC         	movff	?_cosf+2,_main$1160+2
   726  00244A  C0A3  F0CD         	movff	?_cosf+3,_main$1160+3
   727  00244E                     
   728                           ;main.c: 11:     {;main.c: 12:         EUSART2_Write((uint8_t)(200 * cosf(data/10.)));
   729  00244E  0E00               	movlw	0
   730  002450  6E2C               	movwf	___flmul@a^0,c
   731  002452  0E00               	movlw	0
   732  002454  6E2D               	movwf	(___flmul@a+1)^0,c
   733  002456  0E48               	movlw	72
   734  002458  6E2E               	movwf	(___flmul@a+2)^0,c
   735  00245A  0E43               	movlw	67
   736  00245C  6E2F               	movwf	(___flmul@a+3)^0,c
   737  00245E  C0CA  F028         	movff	_main$1160,___flmul@b
   738  002462  C0CB  F029         	movff	_main$1160+1,___flmul@b+1
   739  002466  C0CC  F02A         	movff	_main$1160+2,___flmul@b+2
   740  00246A  C0CD  F02B         	movff	_main$1160+3,___flmul@b+3
   741  00246E  EC96  F00A         	call	___flmul	;wreg free
   742  002472  C028  F051         	movff	?___flmul,___fltol@f1
   743  002476  C029  F052         	movff	?___flmul+1,___fltol@f1+1
   744  00247A  C02A  F053         	movff	?___flmul+2,___fltol@f1+2
   745  00247E  C02B  F054         	movff	?___flmul+3,___fltol@f1+3
   746  002482  EC6A  F011         	call	___fltol	;wreg free
   747  002486  5051               	movf	?___fltol^0,w,c
   748  002488  EC07  F013         	call	_EUSART2_Write
   749  00248C                     
   750                           ;main.c: 14:         if(data < 255)
   751  00248C  0100               	movlb	0	; () banked
   752  00248E  29CE               	incf	main@data& (0+255),w,b
   753  002490  B4D8               	btfsc	status,2,c
   754  002492  EF4D  F012         	goto	u2431
   755  002496  EF4F  F012         	goto	u2430
   756  00249A                     u2431:
   757  00249A  EF52  F012         	goto	l2673
   758  00249E                     u2430:
   759  00249E                     
   760                           ; BSR set to: 0
   761                           ;main.c: 15:             data++;
   762  00249E  2BCE               	incf	main@data& (0+255),f,b
   763  0024A0  EF54  F012         	goto	l2675
   764  0024A4                     l2673:
   765                           
   766                           ; BSR set to: 0
   767                           ;main.c: 17:             data = 1;
   768  0024A4  0E01               	movlw	1
   769  0024A6  6FCE               	movwf	main@data& (0+255),b
   770  0024A8                     l2675:
   771  0024A8  EC12  F013         	call	_EUSART2_is_tx_done	;wreg free
   772  0024AC  0900               	iorlw	0
   773  0024AE  B4D8               	btfsc	status,2,c
   774  0024B0  EF5C  F012         	goto	u2441
   775  0024B4  EF5E  F012         	goto	u2440
   776  0024B8                     u2441:
   777  0024B8  EF54  F012         	goto	l2675
   778  0024BC                     u2440:
   779  0024BC  EFF2  F011         	goto	l2663
   780  0024C0  EF00  F000         	goto	start
   781  0024C4                     __end_of_main:
   782                           	opt callstack 0
   783                           
   784 ;; *************** function _cosf *****************
   785 ;; Defined at:
   786 ;;		line 26 in file "C:\Program Files (x86)\Microchip\xc8\v2.10\pic\sources\c99\common\cosf.c"
   787 ;; Parameters:    Size  Location     Type
   788 ;;  x               4   64[BANK0 ] float 
   789 ;; Auto vars:     Size  Location     Type
   790 ;;  ix              4   98[BANK0 ] unsigned long 
   791 ;;  y               4   94[BANK0 ] unsigned long 
   792 ;;  __xc8_float_    4   76[BANK0 ] struct .
   793 ;;  n               4   72[BANK0 ] long 
   794 ;;  sign            2   92[BANK0 ] unsigned int 
   795 ;; Return value:  Size  Location     Type
   796 ;;                  4   64[BANK0 ] float 
   797 ;; Registers used:
   798 ;;		wreg, fsr2l, fsr2h, status,2, status,0, prodl, prodh, cstack
   799 ;; Tracked objects:
   800 ;;		On entry : 0/0
   801 ;;		On exit  : 0/0
   802 ;;		Unchanged: 0/0
   803 ;; Data sizes:     COMRAM   BANK0   BANK1   BANK2   BANK3   BANK4   BANK5
   804 ;;      Params:         0       4       0       0       0       0       0
   805 ;;      Locals:         0      30       0       0       0       0       0
   806 ;;      Temps:          0       4       0       0       0       0       0
   807 ;;      Totals:         0      38       0       0       0       0       0
   808 ;;Total ram usage:       38 bytes
   809 ;; Hardware stack levels used:    1
   810 ;; Hardware stack levels required when called:    3
   811 ;; This function calls:
   812 ;;		___cosdf
   813 ;;		___fladd
   814 ;;		___flneg
   815 ;;		___flsub
   816 ;;		___rem_pio2f
   817 ;;		___sindf
   818 ;; This function is called by:
   819 ;;		_main
   820 ;; This function uses a non-reentrant model
   821 ;;
   822                           
   823                           	psect	text1
   824  000646                     __ptext1:
   825                           	opt callstack 0
   826  000646                     _cosf:
   827                           	opt callstack 27
   828  000646  C0A0  F0AC         	movff	cosf@x,cosf@__xc8_float_word
   829  00064A  C0A1  F0AD         	movff	cosf@x+1,cosf@__xc8_float_word+1
   830  00064E  C0A2  F0AE         	movff	cosf@x+2,cosf@__xc8_float_word+2
   831  000652  C0A3  F0AF         	movff	cosf@x+3,cosf@__xc8_float_word+3
   832  000656  C0AC  F0C2         	movff	cosf@__xc8_float_word,cosf@ix
   833  00065A  C0AD  F0C3         	movff	cosf@__xc8_float_word+1,cosf@ix+1
   834  00065E  C0AE  F0C4         	movff	cosf@__xc8_float_word+2,cosf@ix+2
   835  000662  C0AF  F0C5         	movff	cosf@__xc8_float_word+3,cosf@ix+3
   836  000666  C0C2  F0A4         	movff	cosf@ix,??_cosf
   837  00066A  C0C3  F0A5         	movff	cosf@ix+1,??_cosf+1
   838  00066E  C0C4  F0A6         	movff	cosf@ix+2,??_cosf+2
   839  000672  C0C5  F0A7         	movff	cosf@ix+3,??_cosf+3
   840  000676  0E20               	movlw	32
   841  000678  EF44  F003         	goto	u2080
   842  00067C                     u2085:
   843  00067C  0100               	movlb	0	; () banked
   844  00067E  90D8               	bcf	status,0,c
   845  000680  33A7               	rrcf	(??_cosf+3)& (0+255),f,b
   846  000682  33A6               	rrcf	(??_cosf+2)& (0+255),f,b
   847  000684  33A5               	rrcf	(??_cosf+1)& (0+255),f,b
   848  000686  33A4               	rrcf	??_cosf& (0+255),f,b
   849  000688                     u2080:
   850  000688  2EE8               	decfsz	wreg,f,c
   851  00068A  EF3E  F003         	goto	u2085
   852  00068E  C0A4  F0BC         	movff	??_cosf,cosf@sign
   853  000692  C0A5  F0BD         	movff	??_cosf+1,cosf@sign+1
   854  000696                     
   855                           ; BSR set to: 0
   856  000696  9FC5               	bcf	(cosf@ix+3)& (0+255),7,b
   857  000698                     
   858                           ; BSR set to: 0
   859  000698  0EDB               	movlw	219
   860  00069A  5DC2               	subwf	cosf@ix& (0+255),w,b
   861  00069C  0E0F               	movlw	15
   862  00069E  59C3               	subwfb	(cosf@ix+1)& (0+255),w,b
   863  0006A0  0E49               	movlw	73
   864  0006A2  59C4               	subwfb	(cosf@ix+2)& (0+255),w,b
   865  0006A4  0E3F               	movlw	63
   866  0006A6  59C5               	subwfb	(cosf@ix+3)& (0+255),w,b
   867  0006A8  B0D8               	btfsc	status,0,c
   868  0006AA  EF59  F003         	goto	u2091
   869  0006AE  EF5B  F003         	goto	u2090
   870  0006B2                     u2091:
   871  0006B2  EF84  F003         	goto	l2419
   872  0006B6                     u2090:
   873  0006B6                     
   874                           ; BSR set to: 0
   875  0006B6  0E80               	movlw	128
   876  0006B8  5DC4               	subwf	(cosf@ix+2)& (0+255),w,b
   877  0006BA  0E39               	movlw	57
   878  0006BC  59C5               	subwfb	(cosf@ix+3)& (0+255),w,b
   879  0006BE  B0D8               	btfsc	status,0,c
   880  0006C0  EF64  F003         	goto	u2101
   881  0006C4  EF66  F003         	goto	u2100
   882  0006C8                     u2101:
   883  0006C8  EF70  F003         	goto	l2415
   884  0006CC                     u2100:
   885  0006CC                     
   886                           ; BSR set to: 0
   887  0006CC  0E00               	movlw	0
   888  0006CE  6FA0               	movwf	?_cosf& (0+255),b
   889  0006D0  0E00               	movlw	0
   890  0006D2  6FA1               	movwf	(?_cosf+1)& (0+255),b
   891  0006D4  0E80               	movlw	128
   892  0006D6  6FA2               	movwf	(?_cosf+2)& (0+255),b
   893  0006D8  0E3F               	movlw	63
   894  0006DA  6FA3               	movwf	(?_cosf+3)& (0+255),b
   895  0006DC  EFED  F005         	goto	l870
   896  0006E0                     l2415:
   897                           
   898                           ; BSR set to: 0
   899  0006E0  C0A0  F051         	movff	cosf@x,___cosdf@x
   900  0006E4  C0A1  F052         	movff	cosf@x+1,___cosdf@x+1
   901  0006E8  C0A2  F053         	movff	cosf@x+2,___cosdf@x+2
   902  0006EC  C0A3  F054         	movff	cosf@x+3,___cosdf@x+3
   903  0006F0  EC91  F00F         	call	___cosdf	;wreg free
   904  0006F4  C051  F0A0         	movff	?___cosdf,?_cosf
   905  0006F8  C052  F0A1         	movff	?___cosdf+1,?_cosf+1
   906  0006FC  C053  F0A2         	movff	?___cosdf+2,?_cosf+2
   907  000700  C054  F0A3         	movff	?___cosdf+3,?_cosf+3
   908  000704  EFED  F005         	goto	l870
   909  000708                     l2419:
   910                           
   911                           ; BSR set to: 0
   912  000708  0ED2               	movlw	210
   913  00070A  5DC2               	subwf	cosf@ix& (0+255),w,b
   914  00070C  0E53               	movlw	83
   915  00070E  59C3               	subwfb	(cosf@ix+1)& (0+255),w,b
   916  000710  0E7B               	movlw	123
   917  000712  59C4               	subwfb	(cosf@ix+2)& (0+255),w,b
   918  000714  0E40               	movlw	64
   919  000716  59C5               	subwfb	(cosf@ix+3)& (0+255),w,b
   920  000718  B0D8               	btfsc	status,0,c
   921  00071A  EF91  F003         	goto	u2111
   922  00071E  EF93  F003         	goto	u2110
   923  000722                     u2111:
   924  000722  EF5C  F004         	goto	l2449
   925  000726                     u2110:
   926  000726                     
   927                           ; BSR set to: 0
   928  000726  0EE4               	movlw	228
   929  000728  5DC2               	subwf	cosf@ix& (0+255),w,b
   930  00072A  0ECB               	movlw	203
   931  00072C  59C3               	subwfb	(cosf@ix+1)& (0+255),w,b
   932  00072E  0E16               	movlw	22
   933  000730  59C4               	subwfb	(cosf@ix+2)& (0+255),w,b
   934  000732  0E40               	movlw	64
   935  000734  59C5               	subwfb	(cosf@ix+3)& (0+255),w,b
   936  000736  A0D8               	btfss	status,0,c
   937  000738  EFA0  F003         	goto	u2121
   938  00073C  EFA2  F003         	goto	u2120
   939  000740                     u2121:
   940  000740  EFFF  F003         	goto	l2435
   941  000744                     u2120:
   942  000744                     
   943                           ; BSR set to: 0
   944  000744  51BC               	movf	cosf@sign& (0+255),w,b
   945  000746  11BD               	iorwf	(cosf@sign+1)& (0+255),w,b
   946  000748  A4D8               	btfss	status,2,c
   947  00074A  EFA9  F003         	goto	u2131
   948  00074E  EFAB  F003         	goto	u2130
   949  000752                     u2131:
   950  000752  EFC7  F003         	goto	l2427
   951  000756                     u2130:
   952  000756                     
   953                           ; BSR set to: 0
   954  000756  C0A0  F041         	movff	cosf@x,___fladd@b
   955  00075A  C0A1  F042         	movff	cosf@x+1,___fladd@b+1
   956  00075E  C0A2  F043         	movff	cosf@x+2,___fladd@b+2
   957  000762  C0A3  F044         	movff	cosf@x+3,___fladd@b+3
   958  000766  0EDB               	movlw	219
   959  000768  6E45               	movwf	___fladd@a^0,c
   960  00076A  0E0F               	movlw	15
   961  00076C  6E46               	movwf	(___fladd@a+1)^0,c
   962  00076E  0E49               	movlw	73
   963  000770  6E47               	movwf	(___fladd@a+2)^0,c
   964  000772  0EC0               	movlw	192
   965  000774  6E48               	movwf	(___fladd@a+3)^0,c
   966  000776  ECEE  F005         	call	___fladd	;wreg free
   967  00077A  C041  F0B0         	movff	?___fladd,_cosf$897
   968  00077E  C042  F0B1         	movff	?___fladd+1,_cosf$897+1
   969  000782  C043  F0B2         	movff	?___fladd+2,_cosf$897+2
   970  000786  C044  F0B3         	movff	?___fladd+3,_cosf$897+3
   971  00078A  EFE1  F003         	goto	l2429
   972  00078E                     l2427:
   973                           
   974                           ; BSR set to: 0
   975  00078E  C0A0  F041         	movff	cosf@x,___fladd@b
   976  000792  C0A1  F042         	movff	cosf@x+1,___fladd@b+1
   977  000796  C0A2  F043         	movff	cosf@x+2,___fladd@b+2
   978  00079A  C0A3  F044         	movff	cosf@x+3,___fladd@b+3
   979  00079E  0EDB               	movlw	219
   980  0007A0  6E45               	movwf	___fladd@a^0,c
   981  0007A2  0E0F               	movlw	15
   982  0007A4  6E46               	movwf	(___fladd@a+1)^0,c
   983  0007A6  0E49               	movlw	73
   984  0007A8  6E47               	movwf	(___fladd@a+2)^0,c
   985  0007AA  0E40               	movlw	64
   986  0007AC  6E48               	movwf	(___fladd@a+3)^0,c
   987  0007AE  ECEE  F005         	call	___fladd	;wreg free
   988  0007B2  C041  F0B0         	movff	?___fladd,_cosf$897
   989  0007B6  C042  F0B1         	movff	?___fladd+1,_cosf$897+1
   990  0007BA  C043  F0B2         	movff	?___fladd+2,_cosf$897+2
   991  0007BE  C044  F0B3         	movff	?___fladd+3,_cosf$897+3
   992  0007C2                     l2429:
   993  0007C2  C0B0  F051         	movff	_cosf$897,___cosdf@x
   994  0007C6  C0B1  F052         	movff	_cosf$897+1,___cosdf@x+1
   995  0007CA  C0B2  F053         	movff	_cosf$897+2,___cosdf@x+2
   996  0007CE  C0B3  F054         	movff	_cosf$897+3,___cosdf@x+3
   997  0007D2  EC91  F00F         	call	___cosdf	;wreg free
   998  0007D6  C051  F078         	movff	?___cosdf,___flneg@f1
   999  0007DA  C052  F079         	movff	?___cosdf+1,___flneg@f1+1
  1000  0007DE  C053  F07A         	movff	?___cosdf+2,___flneg@f1+2
  1001  0007E2  C054  F07B         	movff	?___cosdf+3,___flneg@f1+3
  1002  0007E6  ECC4  F012         	call	___flneg	;wreg free
  1003  0007EA  C078  F0A0         	movff	?___flneg,?_cosf
  1004  0007EE  C079  F0A1         	movff	?___flneg+1,?_cosf+1
  1005  0007F2  C07A  F0A2         	movff	?___flneg+2,?_cosf+2
  1006  0007F6  C07B  F0A3         	movff	?___flneg+3,?_cosf+3
  1007  0007FA  EFED  F005         	goto	l870
  1008  0007FE                     l2435:
  1009                           
  1010                           ; BSR set to: 0
  1011  0007FE  51BC               	movf	cosf@sign& (0+255),w,b
  1012  000800  11BD               	iorwf	(cosf@sign+1)& (0+255),w,b
  1013  000802  B4D8               	btfsc	status,2,c
  1014  000804  EF06  F004         	goto	u2141
  1015  000808  EF08  F004         	goto	u2140
  1016  00080C                     u2141:
  1017  00080C  EF36  F004         	goto	l2445
  1018  000810                     u2140:
  1019  000810                     
  1020                           ; BSR set to: 0
  1021  000810  C0A0  F041         	movff	cosf@x,___fladd@b
  1022  000814  C0A1  F042         	movff	cosf@x+1,___fladd@b+1
  1023  000818  C0A2  F043         	movff	cosf@x+2,___fladd@b+2
  1024  00081C  C0A3  F044         	movff	cosf@x+3,___fladd@b+3
  1025  000820  0EDB               	movlw	219
  1026  000822  6E45               	movwf	___fladd@a^0,c
  1027  000824  0E0F               	movlw	15
  1028  000826  6E46               	movwf	(___fladd@a+1)^0,c
  1029  000828  0EC9               	movlw	201
  1030  00082A  6E47               	movwf	(___fladd@a+2)^0,c
  1031  00082C  0E3F               	movlw	63
  1032  00082E  6E48               	movwf	(___fladd@a+3)^0,c
  1033  000830  ECEE  F005         	call	___fladd	;wreg free
  1034  000834  C041  F0B8         	movff	?___fladd,_cosf$1161
  1035  000838  C042  F0B9         	movff	?___fladd+1,_cosf$1161+1
  1036  00083C  C043  F0BA         	movff	?___fladd+2,_cosf$1161+2
  1037  000840  C044  F0BB         	movff	?___fladd+3,_cosf$1161+3
  1038  000844                     l2439:
  1039  000844  C0B8  F07C         	movff	_cosf$1161,___sindf@x
  1040  000848  C0B9  F07D         	movff	_cosf$1161+1,___sindf@x+1
  1041  00084C  C0BA  F07E         	movff	_cosf$1161+2,___sindf@x+2
  1042  000850  C0BB  F07F         	movff	_cosf$1161+3,___sindf@x+3
  1043  000854  EC78  F00E         	call	___sindf	;wreg free
  1044  000858  C07C  F0A0         	movff	?___sindf,?_cosf
  1045  00085C  C07D  F0A1         	movff	?___sindf+1,?_cosf+1
  1046  000860  C07E  F0A2         	movff	?___sindf+2,?_cosf+2
  1047  000864  C07F  F0A3         	movff	?___sindf+3,?_cosf+3
  1048  000868  EFED  F005         	goto	l870
  1049  00086C                     l2445:
  1050                           
  1051                           ; BSR set to: 0
  1052  00086C  0EDB               	movlw	219
  1053  00086E  6E51               	movwf	___flsub@b^0,c
  1054  000870  0E0F               	movlw	15
  1055  000872  6E52               	movwf	(___flsub@b+1)^0,c
  1056  000874  0EC9               	movlw	201
  1057  000876  6E53               	movwf	(___flsub@b+2)^0,c
  1058  000878  0E3F               	movlw	63
  1059  00087A  6E54               	movwf	(___flsub@b+3)^0,c
  1060  00087C  C0A0  F055         	movff	cosf@x,___flsub@a
  1061  000880  C0A1  F056         	movff	cosf@x+1,___flsub@a+1
  1062  000884  C0A2  F057         	movff	cosf@x+2,___flsub@a+2
  1063  000888  C0A3  F058         	movff	cosf@x+3,___flsub@a+3
  1064  00088C  EC62  F012         	call	___flsub	;wreg free
  1065  000890  C051  F07C         	movff	?___flsub,___sindf@x
  1066  000894  C052  F07D         	movff	?___flsub+1,___sindf@x+1
  1067  000898  C053  F07E         	movff	?___flsub+2,___sindf@x+2
  1068  00089C  C054  F07F         	movff	?___flsub+3,___sindf@x+3
  1069  0008A0  EC78  F00E         	call	___sindf	;wreg free
  1070  0008A4  C07C  F0A0         	movff	?___sindf,?_cosf
  1071  0008A8  C07D  F0A1         	movff	?___sindf+1,?_cosf+1
  1072  0008AC  C07E  F0A2         	movff	?___sindf+2,?_cosf+2
  1073  0008B0  C07F  F0A3         	movff	?___sindf+3,?_cosf+3
  1074  0008B4  EFED  F005         	goto	l870
  1075  0008B8                     l2449:
  1076                           
  1077                           ; BSR set to: 0
  1078  0008B8  0ED6               	movlw	214
  1079  0008BA  5DC2               	subwf	cosf@ix& (0+255),w,b
  1080  0008BC  0E31               	movlw	49
  1081  0008BE  59C3               	subwfb	(cosf@ix+1)& (0+255),w,b
  1082  0008C0  0EE2               	movlw	226
  1083  0008C2  59C4               	subwfb	(cosf@ix+2)& (0+255),w,b
  1084  0008C4  0E40               	movlw	64
  1085  0008C6  59C5               	subwfb	(cosf@ix+3)& (0+255),w,b
  1086  0008C8  B0D8               	btfsc	status,0,c
  1087  0008CA  EF69  F004         	goto	u2151
  1088  0008CE  EF6B  F004         	goto	u2150
  1089  0008D2                     u2151:
  1090  0008D2  EF18  F005         	goto	l2479
  1091  0008D6                     u2150:
  1092  0008D6                     
  1093                           ; BSR set to: 0
  1094  0008D6  0EE0               	movlw	224
  1095  0008D8  5DC2               	subwf	cosf@ix& (0+255),w,b
  1096  0008DA  0EED               	movlw	237
  1097  0008DC  59C3               	subwfb	(cosf@ix+1)& (0+255),w,b
  1098  0008DE  0EAF               	movlw	175
  1099  0008E0  59C4               	subwfb	(cosf@ix+2)& (0+255),w,b
  1100  0008E2  0E40               	movlw	64
  1101  0008E4  59C5               	subwfb	(cosf@ix+3)& (0+255),w,b
  1102  0008E6  A0D8               	btfss	status,0,c
  1103  0008E8  EF78  F004         	goto	u2161
  1104  0008EC  EF7A  F004         	goto	u2160
  1105  0008F0                     u2161:
  1106  0008F0  EFCD  F004         	goto	l2465
  1107  0008F4                     u2160:
  1108  0008F4                     
  1109                           ; BSR set to: 0
  1110  0008F4  51BC               	movf	cosf@sign& (0+255),w,b
  1111  0008F6  11BD               	iorwf	(cosf@sign+1)& (0+255),w,b
  1112  0008F8  A4D8               	btfss	status,2,c
  1113  0008FA  EF81  F004         	goto	u2171
  1114  0008FE  EF83  F004         	goto	u2170
  1115  000902                     u2171:
  1116  000902  EF9F  F004         	goto	l2457
  1117  000906                     u2170:
  1118  000906                     
  1119                           ; BSR set to: 0
  1120  000906  C0A0  F041         	movff	cosf@x,___fladd@b
  1121  00090A  C0A1  F042         	movff	cosf@x+1,___fladd@b+1
  1122  00090E  C0A2  F043         	movff	cosf@x+2,___fladd@b+2
  1123  000912  C0A3  F044         	movff	cosf@x+3,___fladd@b+3
  1124  000916  0EDB               	movlw	219
  1125  000918  6E45               	movwf	___fladd@a^0,c
  1126  00091A  0E0F               	movlw	15
  1127  00091C  6E46               	movwf	(___fladd@a+1)^0,c
  1128  00091E  0EC9               	movlw	201
  1129  000920  6E47               	movwf	(___fladd@a+2)^0,c
  1130  000922  0EC0               	movlw	192
  1131  000924  6E48               	movwf	(___fladd@a+3)^0,c
  1132  000926  ECEE  F005         	call	___fladd	;wreg free
  1133  00092A  C041  F0B4         	movff	?___fladd,_cosf$898
  1134  00092E  C042  F0B5         	movff	?___fladd+1,_cosf$898+1
  1135  000932  C043  F0B6         	movff	?___fladd+2,_cosf$898+2
  1136  000936  C044  F0B7         	movff	?___fladd+3,_cosf$898+3
  1137  00093A  EFB9  F004         	goto	l2459
  1138  00093E                     l2457:
  1139                           
  1140                           ; BSR set to: 0
  1141  00093E  C0A0  F041         	movff	cosf@x,___fladd@b
  1142  000942  C0A1  F042         	movff	cosf@x+1,___fladd@b+1
  1143  000946  C0A2  F043         	movff	cosf@x+2,___fladd@b+2
  1144  00094A  C0A3  F044         	movff	cosf@x+3,___fladd@b+3
  1145  00094E  0EDB               	movlw	219
  1146  000950  6E45               	movwf	___fladd@a^0,c
  1147  000952  0E0F               	movlw	15
  1148  000954  6E46               	movwf	(___fladd@a+1)^0,c
  1149  000956  0EC9               	movlw	201
  1150  000958  6E47               	movwf	(___fladd@a+2)^0,c
  1151  00095A  0E40               	movlw	64
  1152  00095C  6E48               	movwf	(___fladd@a+3)^0,c
  1153  00095E  ECEE  F005         	call	___fladd	;wreg free
  1154  000962  C041  F0B4         	movff	?___fladd,_cosf$898
  1155  000966  C042  F0B5         	movff	?___fladd+1,_cosf$898+1
  1156  00096A  C043  F0B6         	movff	?___fladd+2,_cosf$898+2
  1157  00096E  C044  F0B7         	movff	?___fladd+3,_cosf$898+3
  1158  000972                     l2459:
  1159  000972  C0B4  F051         	movff	_cosf$898,___cosdf@x
  1160  000976  C0B5  F052         	movff	_cosf$898+1,___cosdf@x+1
  1161  00097A  C0B6  F053         	movff	_cosf$898+2,___cosdf@x+2
  1162  00097E  C0B7  F054         	movff	_cosf$898+3,___cosdf@x+3
  1163  000982  EC91  F00F         	call	___cosdf	;wreg free
  1164  000986  C051  F0A0         	movff	?___cosdf,?_cosf
  1165  00098A  C052  F0A1         	movff	?___cosdf+1,?_cosf+1
  1166  00098E  C053  F0A2         	movff	?___cosdf+2,?_cosf+2
  1167  000992  C054  F0A3         	movff	?___cosdf+3,?_cosf+3
  1168  000996  EFED  F005         	goto	l870
  1169  00099A                     l2465:
  1170                           
  1171                           ; BSR set to: 0
  1172  00099A  51BC               	movf	cosf@sign& (0+255),w,b
  1173  00099C  11BD               	iorwf	(cosf@sign+1)& (0+255),w,b
  1174  00099E  B4D8               	btfsc	status,2,c
  1175  0009A0  EFD4  F004         	goto	u2181
  1176  0009A4  EFD6  F004         	goto	u2180
  1177  0009A8                     u2181:
  1178  0009A8  EFFC  F004         	goto	l2473
  1179  0009AC                     u2180:
  1180  0009AC                     
  1181                           ; BSR set to: 0
  1182  0009AC  0EE4               	movlw	228
  1183  0009AE  6E51               	movwf	___flsub@b^0,c
  1184  0009B0  0ECB               	movlw	203
  1185  0009B2  6E52               	movwf	(___flsub@b+1)^0,c
  1186  0009B4  0E96               	movlw	150
  1187  0009B6  6E53               	movwf	(___flsub@b+2)^0,c
  1188  0009B8  0EC0               	movlw	192
  1189  0009BA  6E54               	movwf	(___flsub@b+3)^0,c
  1190  0009BC  C0A0  F055         	movff	cosf@x,___flsub@a
  1191  0009C0  C0A1  F056         	movff	cosf@x+1,___flsub@a+1
  1192  0009C4  C0A2  F057         	movff	cosf@x+2,___flsub@a+2
  1193  0009C8  C0A3  F058         	movff	cosf@x+3,___flsub@a+3
  1194  0009CC  EC62  F012         	call	___flsub	;wreg free
  1195  0009D0  C051  F07C         	movff	?___flsub,___sindf@x
  1196  0009D4  C052  F07D         	movff	?___flsub+1,___sindf@x+1
  1197  0009D8  C053  F07E         	movff	?___flsub+2,___sindf@x+2
  1198  0009DC  C054  F07F         	movff	?___flsub+3,___sindf@x+3
  1199  0009E0  EC78  F00E         	call	___sindf	;wreg free
  1200  0009E4  C07C  F0A0         	movff	?___sindf,?_cosf
  1201  0009E8  C07D  F0A1         	movff	?___sindf+1,?_cosf+1
  1202  0009EC  C07E  F0A2         	movff	?___sindf+2,?_cosf+2
  1203  0009F0  C07F  F0A3         	movff	?___sindf+3,?_cosf+3
  1204  0009F4  EFED  F005         	goto	l870
  1205  0009F8                     l2473:
  1206                           
  1207                           ; BSR set to: 0
  1208  0009F8  C0A0  F041         	movff	cosf@x,___fladd@b
  1209  0009FC  C0A1  F042         	movff	cosf@x+1,___fladd@b+1
  1210  000A00  C0A2  F043         	movff	cosf@x+2,___fladd@b+2
  1211  000A04  C0A3  F044         	movff	cosf@x+3,___fladd@b+3
  1212  000A08  0EE4               	movlw	228
  1213  000A0A  6E45               	movwf	___fladd@a^0,c
  1214  000A0C  0ECB               	movlw	203
  1215  000A0E  6E46               	movwf	(___fladd@a+1)^0,c
  1216  000A10  0E96               	movlw	150
  1217  000A12  6E47               	movwf	(___fladd@a+2)^0,c
  1218  000A14  0EC0               	movlw	192
  1219  000A16  6E48               	movwf	(___fladd@a+3)^0,c
  1220  000A18  ECEE  F005         	call	___fladd	;wreg free
  1221  000A1C  C041  F0B8         	movff	?___fladd,_cosf$1161
  1222  000A20  C042  F0B9         	movff	?___fladd+1,_cosf$1161+1
  1223  000A24  C043  F0BA         	movff	?___fladd+2,_cosf$1161+2
  1224  000A28  C044  F0BB         	movff	?___fladd+3,_cosf$1161+3
  1225  000A2C  EF22  F004         	goto	l2439
  1226  000A30                     l2479:
  1227                           
  1228                           ; BSR set to: 0
  1229  000A30  0E80               	movlw	128
  1230  000A32  5DC4               	subwf	(cosf@ix+2)& (0+255),w,b
  1231  000A34  0E7F               	movlw	127
  1232  000A36  59C5               	subwfb	(cosf@ix+3)& (0+255),w,b
  1233  000A38  A0D8               	btfss	status,0,c
  1234  000A3A  EF21  F005         	goto	u2191
  1235  000A3E  EF23  F005         	goto	u2190
  1236  000A42                     u2191:
  1237  000A42  EF3F  F005         	goto	l2485
  1238  000A46                     u2190:
  1239  000A46                     
  1240                           ; BSR set to: 0
  1241  000A46  C0A0  F051         	movff	cosf@x,___flsub@b
  1242  000A4A  C0A1  F052         	movff	cosf@x+1,___flsub@b+1
  1243  000A4E  C0A2  F053         	movff	cosf@x+2,___flsub@b+2
  1244  000A52  C0A3  F054         	movff	cosf@x+3,___flsub@b+3
  1245  000A56  C0A0  F055         	movff	cosf@x,___flsub@a
  1246  000A5A  C0A1  F056         	movff	cosf@x+1,___flsub@a+1
  1247  000A5E  C0A2  F057         	movff	cosf@x+2,___flsub@a+2
  1248  000A62  C0A3  F058         	movff	cosf@x+3,___flsub@a+3
  1249  000A66  EC62  F012         	call	___flsub	;wreg free
  1250  000A6A  C051  F0A0         	movff	?___flsub,?_cosf
  1251  000A6E  C052  F0A1         	movff	?___flsub+1,?_cosf+1
  1252  000A72  C053  F0A2         	movff	?___flsub+2,?_cosf+2
  1253  000A76  C054  F0A3         	movff	?___flsub+3,?_cosf+3
  1254  000A7A  EFED  F005         	goto	l870
  1255  000A7E                     l2485:
  1256                           
  1257                           ; BSR set to: 0
  1258  000A7E  C0A0  F07C         	movff	cosf@x,___rem_pio2f@x
  1259  000A82  C0A1  F07D         	movff	cosf@x+1,___rem_pio2f@x+1
  1260  000A86  C0A2  F07E         	movff	cosf@x+2,___rem_pio2f@x+2
  1261  000A8A  C0A3  F07F         	movff	cosf@x+3,___rem_pio2f@x+3
  1262  000A8E  0EBE               	movlw	low cosf@y
  1263  000A90  6F80               	movwf	___rem_pio2f@y& (0+255),b
  1264  000A92  0E00               	movlw	high cosf@y
  1265  000A94  6F81               	movwf	(___rem_pio2f@y+1)& (0+255),b
  1266  000A96  EC4E  F008         	call	___rem_pio2f	;wreg free
  1267  000A9A  0100               	movlb	0	; () banked
  1268  000A9C  C07C  F0A8         	movff	?___rem_pio2f,cosf@n
  1269  000AA0  C07D  F0A9         	movff	?___rem_pio2f+1,cosf@n+1
  1270  000AA4  0E00               	movlw	0
  1271  000AA6  BFA9               	btfsc	(cosf@n+1)& (0+255),7,b
  1272  000AA8  0EFF               	movlw	-1
  1273  000AAA  6FAA               	movwf	(cosf@n+2)& (0+255),b
  1274  000AAC  6FAB               	movwf	(cosf@n+3)& (0+255),b
  1275  000AAE  EFBD  F005         	goto	l2505
  1276  000AB2                     l2487:
  1277                           
  1278                           ; BSR set to: 0
  1279  000AB2  C0BE  F051         	movff	cosf@y,___cosdf@x
  1280  000AB6  C0BF  F052         	movff	cosf@y+1,___cosdf@x+1
  1281  000ABA  C0C0  F053         	movff	cosf@y+2,___cosdf@x+2
  1282  000ABE  C0C1  F054         	movff	cosf@y+3,___cosdf@x+3
  1283  000AC2  EC91  F00F         	call	___cosdf	;wreg free
  1284  000AC6  C051  F0A0         	movff	?___cosdf,?_cosf
  1285  000ACA  C052  F0A1         	movff	?___cosdf+1,?_cosf+1
  1286  000ACE  C053  F0A2         	movff	?___cosdf+2,?_cosf+2
  1287  000AD2  C054  F0A3         	movff	?___cosdf+3,?_cosf+3
  1288  000AD6  EFED  F005         	goto	l870
  1289  000ADA                     l2491:
  1290                           
  1291                           ; BSR set to: 0
  1292  000ADA  C0BE  F078         	movff	cosf@y,___flneg@f1
  1293  000ADE  C0BF  F079         	movff	cosf@y+1,___flneg@f1+1
  1294  000AE2  C0C0  F07A         	movff	cosf@y+2,___flneg@f1+2
  1295  000AE6  C0C1  F07B         	movff	cosf@y+3,___flneg@f1+3
  1296  000AEA  ECC4  F012         	call	___flneg	;wreg free
  1297  000AEE  C078  F07C         	movff	?___flneg,___sindf@x
  1298  000AF2  C079  F07D         	movff	?___flneg+1,___sindf@x+1
  1299  000AF6  C07A  F07E         	movff	?___flneg+2,___sindf@x+2
  1300  000AFA  C07B  F07F         	movff	?___flneg+3,___sindf@x+3
  1301  000AFE  EC78  F00E         	call	___sindf	;wreg free
  1302  000B02  C07C  F0A0         	movff	?___sindf,?_cosf
  1303  000B06  C07D  F0A1         	movff	?___sindf+1,?_cosf+1
  1304  000B0A  C07E  F0A2         	movff	?___sindf+2,?_cosf+2
  1305  000B0E  C07F  F0A3         	movff	?___sindf+3,?_cosf+3
  1306  000B12  EFED  F005         	goto	l870
  1307  000B16                     l2495:
  1308                           
  1309                           ; BSR set to: 0
  1310  000B16  C0BE  F051         	movff	cosf@y,___cosdf@x
  1311  000B1A  C0BF  F052         	movff	cosf@y+1,___cosdf@x+1
  1312  000B1E  C0C0  F053         	movff	cosf@y+2,___cosdf@x+2
  1313  000B22  C0C1  F054         	movff	cosf@y+3,___cosdf@x+3
  1314  000B26  EC91  F00F         	call	___cosdf	;wreg free
  1315  000B2A  C051  F078         	movff	?___cosdf,___flneg@f1
  1316  000B2E  C052  F079         	movff	?___cosdf+1,___flneg@f1+1
  1317  000B32  C053  F07A         	movff	?___cosdf+2,___flneg@f1+2
  1318  000B36  C054  F07B         	movff	?___cosdf+3,___flneg@f1+3
  1319  000B3A  ECC4  F012         	call	___flneg	;wreg free
  1320  000B3E  C078  F0A0         	movff	?___flneg,?_cosf
  1321  000B42  C079  F0A1         	movff	?___flneg+1,?_cosf+1
  1322  000B46  C07A  F0A2         	movff	?___flneg+2,?_cosf+2
  1323  000B4A  C07B  F0A3         	movff	?___flneg+3,?_cosf+3
  1324  000B4E  EFED  F005         	goto	l870
  1325  000B52                     l2499:
  1326                           
  1327                           ; BSR set to: 0
  1328  000B52  C0BE  F07C         	movff	cosf@y,___sindf@x
  1329  000B56  C0BF  F07D         	movff	cosf@y+1,___sindf@x+1
  1330  000B5A  C0C0  F07E         	movff	cosf@y+2,___sindf@x+2
  1331  000B5E  C0C1  F07F         	movff	cosf@y+3,___sindf@x+3
  1332  000B62  EC78  F00E         	call	___sindf	;wreg free
  1333  000B66  C07C  F0A0         	movff	?___sindf,?_cosf
  1334  000B6A  C07D  F0A1         	movff	?___sindf+1,?_cosf+1
  1335  000B6E  C07E  F0A2         	movff	?___sindf+2,?_cosf+2
  1336  000B72  C07F  F0A3         	movff	?___sindf+3,?_cosf+3
  1337  000B76  EFED  F005         	goto	l870
  1338  000B7A                     l2505:
  1339                           
  1340                           ; BSR set to: 0
  1341  000B7A  0E03               	movlw	3
  1342  000B7C  15A8               	andwf	cosf@n& (0+255),w,b
  1343  000B7E  6FA4               	movwf	??_cosf& (0+255),b
  1344  000B80  0E00               	movlw	0
  1345  000B82  15A9               	andwf	(cosf@n+1)& (0+255),w,b
  1346  000B84  6FA5               	movwf	(??_cosf+1)& (0+255),b
  1347  000B86  0E00               	movlw	0
  1348  000B88  15AA               	andwf	(cosf@n+2)& (0+255),w,b
  1349  000B8A  6FA6               	movwf	(??_cosf+2)& (0+255),b
  1350  000B8C  0E00               	movlw	0
  1351  000B8E  15AB               	andwf	(cosf@n+3)& (0+255),w,b
  1352  000B90  6FA7               	movwf	(??_cosf+3)& (0+255),b
  1353                           
  1354                           ; Switch on 2 bytes has been partitioned into a top level switch of size 1, and 2 sub-sw
      +                          itches
  1355                           ; Switch size 1, requested type "simple"
  1356                           ; Number of cases is 1, Range of values is 0 to 0
  1357                           ; switch strategies available:
  1358                           ; Name         Instructions Cycles
  1359                           ; simple_byte            4     3 (average)
  1360                           ;	Chosen strategy is simple_byte
  1361  000B92  51A7               	movf	(??_cosf+3)& (0+255),w,b
  1362  000B94  0A00               	xorlw	0	; case 0
  1363  000B96  B4D8               	btfsc	status,2,c
  1364  000B98  EFE6  F005         	goto	l2739
  1365  000B9C  EFA9  F005         	goto	l2499
  1366  000BA0                     l2737:
  1367                           
  1368                           ; BSR set to: 0
  1369                           ; Switch on 2 bytes has been partitioned into a top level switch of size 1, and 1 sub-sw
      +                          itches
  1370                           ; Switch size 1, requested type "simple"
  1371                           ; Number of cases is 1, Range of values is 0 to 0
  1372                           ; switch strategies available:
  1373                           ; Name         Instructions Cycles
  1374                           ; simple_byte            4     3 (average)
  1375                           ;	Chosen strategy is simple_byte
  1376  000BA0  51A5               	movf	(??_cosf+1)& (0+255),w,b
  1377  000BA2  0A00               	xorlw	0	; case 0
  1378  000BA4  B4D8               	btfsc	status,2,c
  1379  000BA6  EFD7  F005         	goto	l2741
  1380  000BAA  EFA9  F005         	goto	l2499
  1381  000BAE                     l2741:
  1382                           
  1383                           ; BSR set to: 0
  1384                           ; Switch size 1, requested type "simple"
  1385                           ; Number of cases is 3, Range of values is 0 to 2
  1386                           ; switch strategies available:
  1387                           ; Name         Instructions Cycles
  1388                           ; simple_byte           10     6 (average)
  1389                           ;	Chosen strategy is simple_byte
  1390  000BAE  51A4               	movf	??_cosf& (0+255),w,b
  1391  000BB0  0A00               	xorlw	0	; case 0
  1392  000BB2  B4D8               	btfsc	status,2,c
  1393  000BB4  EF59  F005         	goto	l2487
  1394  000BB8  0A01               	xorlw	1	; case 1
  1395  000BBA  B4D8               	btfsc	status,2,c
  1396  000BBC  EF6D  F005         	goto	l2491
  1397  000BC0  0A03               	xorlw	3	; case 2
  1398  000BC2  B4D8               	btfsc	status,2,c
  1399  000BC4  EF8B  F005         	goto	l2495
  1400  000BC8  EFA9  F005         	goto	l2499
  1401  000BCC                     l2739:
  1402                           
  1403                           ; BSR set to: 0
  1404                           ; Switch size 1, requested type "simple"
  1405                           ; Number of cases is 1, Range of values is 0 to 0
  1406                           ; switch strategies available:
  1407                           ; Name         Instructions Cycles
  1408                           ; simple_byte            4     3 (average)
  1409                           ;	Chosen strategy is simple_byte
  1410  000BCC  51A6               	movf	(??_cosf+2)& (0+255),w,b
  1411  000BCE  0A00               	xorlw	0	; case 0
  1412  000BD0  B4D8               	btfsc	status,2,c
  1413  000BD2  EFD0  F005         	goto	l2737
  1414  000BD6  EFA9  F005         	goto	l2499
  1415  000BDA                     l870:
  1416  000BDA  0012               	return		;funcret
  1417  000BDC                     __end_of_cosf:
  1418                           	opt callstack 0
  1419                           
  1420 ;; *************** function ___sindf *****************
  1421 ;; Defined at:
  1422 ;;		line 26 in file "C:\Program Files (x86)\Microchip\xc8\v2.10\pic\sources\c99\common\__sindf.c"
  1423 ;; Parameters:    Size  Location     Type
  1424 ;;  x               4   28[BANK0 ] float 
  1425 ;; Auto vars:     Size  Location     Type
  1426 ;;  z               4   56[BANK0 ] float 
  1427 ;;  s               4   52[BANK0 ] float 
  1428 ;;  w               4   36[BANK0 ] float 
  1429 ;;  r               4   32[BANK0 ] float 
  1430 ;; Return value:  Size  Location     Type
  1431 ;;                  4   28[BANK0 ] float 
  1432 ;; Registers used:
  1433 ;;		wreg, status,2, status,0, prodl, prodh, cstack
  1434 ;; Tracked objects:
  1435 ;;		On entry : 0/0
  1436 ;;		On exit  : 0/0
  1437 ;;		Unchanged: 0/0
  1438 ;; Data sizes:     COMRAM   BANK0   BANK1   BANK2   BANK3   BANK4   BANK5
  1439 ;;      Params:         0       4       0       0       0       0       0
  1440 ;;      Locals:         0      28       0       0       0       0       0
  1441 ;;      Temps:          0       0       0       0       0       0       0
  1442 ;;      Totals:         0      32       0       0       0       0       0
  1443 ;;Total ram usage:       32 bytes
  1444 ;; Hardware stack levels used:    1
  1445 ;; Hardware stack levels required when called:    1
  1446 ;; This function calls:
  1447 ;;		___fladd
  1448 ;;		___flmul
  1449 ;; This function is called by:
  1450 ;;		_cosf
  1451 ;; This function uses a non-reentrant model
  1452 ;;
  1453                           
  1454                           	psect	text2
  1455  001CF0                     __ptext2:
  1456                           	opt callstack 0
  1457  001CF0                     ___sindf:
  1458                           	opt callstack 28
  1459  001CF0  C07C  F028         	movff	___sindf@x,___flmul@b
  1460  001CF4  C07D  F029         	movff	___sindf@x+1,___flmul@b+1
  1461  001CF8  C07E  F02A         	movff	___sindf@x+2,___flmul@b+2
  1462  001CFC  C07F  F02B         	movff	___sindf@x+3,___flmul@b+3
  1463  001D00  C07C  F02C         	movff	___sindf@x,___flmul@a
  1464  001D04  C07D  F02D         	movff	___sindf@x+1,___flmul@a+1
  1465  001D08  C07E  F02E         	movff	___sindf@x+2,___flmul@a+2
  1466  001D0C  C07F  F02F         	movff	___sindf@x+3,___flmul@a+3
  1467  001D10  EC96  F00A         	call	___flmul	;wreg free
  1468  001D14  C028  F098         	movff	?___flmul,___sindf@z
  1469  001D18  C029  F099         	movff	?___flmul+1,___sindf@z+1
  1470  001D1C  C02A  F09A         	movff	?___flmul+2,___sindf@z+2
  1471  001D20  C02B  F09B         	movff	?___flmul+3,___sindf@z+3
  1472  001D24  C098  F028         	movff	___sindf@z,___flmul@b
  1473  001D28  C099  F029         	movff	___sindf@z+1,___flmul@b+1
  1474  001D2C  C09A  F02A         	movff	___sindf@z+2,___flmul@b+2
  1475  001D30  C09B  F02B         	movff	___sindf@z+3,___flmul@b+3
  1476  001D34  C098  F02C         	movff	___sindf@z,___flmul@a
  1477  001D38  C099  F02D         	movff	___sindf@z+1,___flmul@a+1
  1478  001D3C  C09A  F02E         	movff	___sindf@z+2,___flmul@a+2
  1479  001D40  C09B  F02F         	movff	___sindf@z+3,___flmul@a+3
  1480  001D44  EC96  F00A         	call	___flmul	;wreg free
  1481  001D48  C028  F084         	movff	?___flmul,___sindf@w
  1482  001D4C  C029  F085         	movff	?___flmul+1,___sindf@w+1
  1483  001D50  C02A  F086         	movff	?___flmul+2,___sindf@w+2
  1484  001D54  C02B  F087         	movff	?___flmul+3,___sindf@w+3
  1485  001D58  0E3C               	movlw	60
  1486  001D5A  6E2C               	movwf	___flmul@a^0,c
  1487  001D5C  0E6C               	movlw	108
  1488  001D5E  6E2D               	movwf	(___flmul@a+1)^0,c
  1489  001D60  0E36               	movlw	54
  1490  001D62  6E2E               	movwf	(___flmul@a+2)^0,c
  1491  001D64  0E36               	movlw	54
  1492  001D66  6E2F               	movwf	(___flmul@a+3)^0,c
  1493  001D68  C098  F028         	movff	___sindf@z,___flmul@b
  1494  001D6C  C099  F029         	movff	___sindf@z+1,___flmul@b+1
  1495  001D70  C09A  F02A         	movff	___sindf@z+2,___flmul@b+2
  1496  001D74  C09B  F02B         	movff	___sindf@z+3,___flmul@b+3
  1497  001D78  EC96  F00A         	call	___flmul	;wreg free
  1498  001D7C  C028  F041         	movff	?___flmul,___fladd@b
  1499  001D80  C029  F042         	movff	?___flmul+1,___fladd@b+1
  1500  001D84  C02A  F043         	movff	?___flmul+2,___fladd@b+2
  1501  001D88  C02B  F044         	movff	?___flmul+3,___fladd@b+3
  1502  001D8C  0ECF               	movlw	207
  1503  001D8E  6E45               	movwf	___fladd@a^0,c
  1504  001D90  0E07               	movlw	7
  1505  001D92  6E46               	movwf	(___fladd@a+1)^0,c
  1506  001D94  0E50               	movlw	80
  1507  001D96  6E47               	movwf	(___fladd@a+2)^0,c
  1508  001D98  0EB9               	movlw	185
  1509  001D9A  6E48               	movwf	(___fladd@a+3)^0,c
  1510  001D9C  ECEE  F005         	call	___fladd	;wreg free
  1511  001DA0  C041  F080         	movff	?___fladd,___sindf@r
  1512  001DA4  C042  F081         	movff	?___fladd+1,___sindf@r+1
  1513  001DA8  C043  F082         	movff	?___fladd+2,___sindf@r+2
  1514  001DAC  C044  F083         	movff	?___fladd+3,___sindf@r+3
  1515  001DB0  C098  F028         	movff	___sindf@z,___flmul@b
  1516  001DB4  C099  F029         	movff	___sindf@z+1,___flmul@b+1
  1517  001DB8  C09A  F02A         	movff	___sindf@z+2,___flmul@b+2
  1518  001DBC  C09B  F02B         	movff	___sindf@z+3,___flmul@b+3
  1519  001DC0  C07C  F02C         	movff	___sindf@x,___flmul@a
  1520  001DC4  C07D  F02D         	movff	___sindf@x+1,___flmul@a+1
  1521  001DC8  C07E  F02E         	movff	___sindf@x+2,___flmul@a+2
  1522  001DCC  C07F  F02F         	movff	___sindf@x+3,___flmul@a+3
  1523  001DD0  EC96  F00A         	call	___flmul	;wreg free
  1524  001DD4  C028  F094         	movff	?___flmul,___sindf@s
  1525  001DD8  C029  F095         	movff	?___flmul+1,___sindf@s+1
  1526  001DDC  C02A  F096         	movff	?___flmul+2,___sindf@s+2
  1527  001DE0  C02B  F097         	movff	?___flmul+3,___sindf@s+3
  1528  001DE4  0EAB               	movlw	171
  1529  001DE6  6E45               	movwf	___fladd@a^0,c
  1530  001DE8  0EAA               	movlw	170
  1531  001DEA  6E46               	movwf	(___fladd@a+1)^0,c
  1532  001DEC  0E2A               	movlw	42
  1533  001DEE  6E47               	movwf	(___fladd@a+2)^0,c
  1534  001DF0  0EBE               	movlw	190
  1535  001DF2  6E48               	movwf	(___fladd@a+3)^0,c
  1536  001DF4  0E84               	movlw	132
  1537  001DF6  6E2C               	movwf	___flmul@a^0,c
  1538  001DF8  0E88               	movlw	136
  1539  001DFA  6E2D               	movwf	(___flmul@a+1)^0,c
  1540  001DFC  0E08               	movlw	8
  1541  001DFE  6E2E               	movwf	(___flmul@a+2)^0,c
  1542  001E00  0E3C               	movlw	60
  1543  001E02  6E2F               	movwf	(___flmul@a+3)^0,c
  1544  001E04  C098  F028         	movff	___sindf@z,___flmul@b
  1545  001E08  C099  F029         	movff	___sindf@z+1,___flmul@b+1
  1546  001E0C  C09A  F02A         	movff	___sindf@z+2,___flmul@b+2
  1547  001E10  C09B  F02B         	movff	___sindf@z+3,___flmul@b+3
  1548  001E14  EC96  F00A         	call	___flmul	;wreg free
  1549  001E18  C028  F041         	movff	?___flmul,___fladd@b
  1550  001E1C  C029  F042         	movff	?___flmul+1,___fladd@b+1
  1551  001E20  C02A  F043         	movff	?___flmul+2,___fladd@b+2
  1552  001E24  C02B  F044         	movff	?___flmul+3,___fladd@b+3
  1553  001E28  ECEE  F005         	call	___fladd	;wreg free
  1554  001E2C  C041  F088         	movff	?___fladd,___sindf$1166
  1555  001E30  C042  F089         	movff	?___fladd+1,___sindf$1166+1
  1556  001E34  C043  F08A         	movff	?___fladd+2,___sindf$1166+2
  1557  001E38  C044  F08B         	movff	?___fladd+3,___sindf$1166+3
  1558  001E3C  C084  F02C         	movff	___sindf@w,___flmul@a
  1559  001E40  C085  F02D         	movff	___sindf@w+1,___flmul@a+1
  1560  001E44  C086  F02E         	movff	___sindf@w+2,___flmul@a+2
  1561  001E48  C087  F02F         	movff	___sindf@w+3,___flmul@a+3
  1562  001E4C  C094  F028         	movff	___sindf@s,___flmul@b
  1563  001E50  C095  F029         	movff	___sindf@s+1,___flmul@b+1
  1564  001E54  C096  F02A         	movff	___sindf@s+2,___flmul@b+2
  1565  001E58  C097  F02B         	movff	___sindf@s+3,___flmul@b+3
  1566  001E5C  EC96  F00A         	call	___flmul	;wreg free
  1567  001E60  C028  F08C         	movff	?___flmul,___sindf$1167
  1568  001E64  C029  F08D         	movff	?___flmul+1,___sindf$1167+1
  1569  001E68  C02A  F08E         	movff	?___flmul+2,___sindf$1167+2
  1570  001E6C  C02B  F08F         	movff	?___flmul+3,___sindf$1167+3
  1571  001E70  C07C  F045         	movff	___sindf@x,___fladd@a
  1572  001E74  C07D  F046         	movff	___sindf@x+1,___fladd@a+1
  1573  001E78  C07E  F047         	movff	___sindf@x+2,___fladd@a+2
  1574  001E7C  C07F  F048         	movff	___sindf@x+3,___fladd@a+3
  1575  001E80  C094  F02C         	movff	___sindf@s,___flmul@a
  1576  001E84  C095  F02D         	movff	___sindf@s+1,___flmul@a+1
  1577  001E88  C096  F02E         	movff	___sindf@s+2,___flmul@a+2
  1578  001E8C  C097  F02F         	movff	___sindf@s+3,___flmul@a+3
  1579  001E90  C088  F028         	movff	___sindf$1166,___flmul@b
  1580  001E94  C089  F029         	movff	___sindf$1166+1,___flmul@b+1
  1581  001E98  C08A  F02A         	movff	___sindf$1166+2,___flmul@b+2
  1582  001E9C  C08B  F02B         	movff	___sindf$1166+3,___flmul@b+3
  1583  001EA0  EC96  F00A         	call	___flmul	;wreg free
  1584  001EA4  C028  F041         	movff	?___flmul,___fladd@b
  1585  001EA8  C029  F042         	movff	?___flmul+1,___fladd@b+1
  1586  001EAC  C02A  F043         	movff	?___flmul+2,___fladd@b+2
  1587  001EB0  C02B  F044         	movff	?___flmul+3,___fladd@b+3
  1588  001EB4  ECEE  F005         	call	___fladd	;wreg free
  1589  001EB8  C041  F090         	movff	?___fladd,___sindf$1168
  1590  001EBC  C042  F091         	movff	?___fladd+1,___sindf$1168+1
  1591  001EC0  C043  F092         	movff	?___fladd+2,___sindf$1168+2
  1592  001EC4  C044  F093         	movff	?___fladd+3,___sindf$1168+3
  1593  001EC8  C090  F041         	movff	___sindf$1168,___fladd@b
  1594  001ECC  C091  F042         	movff	___sindf$1168+1,___fladd@b+1
  1595  001ED0  C092  F043         	movff	___sindf$1168+2,___fladd@b+2
  1596  001ED4  C093  F044         	movff	___sindf$1168+3,___fladd@b+3
  1597  001ED8  C080  F02C         	movff	___sindf@r,___flmul@a
  1598  001EDC  C081  F02D         	movff	___sindf@r+1,___flmul@a+1
  1599  001EE0  C082  F02E         	movff	___sindf@r+2,___flmul@a+2
  1600  001EE4  C083  F02F         	movff	___sindf@r+3,___flmul@a+3
  1601  001EE8  C08C  F028         	movff	___sindf$1167,___flmul@b
  1602  001EEC  C08D  F029         	movff	___sindf$1167+1,___flmul@b+1
  1603  001EF0  C08E  F02A         	movff	___sindf$1167+2,___flmul@b+2
  1604  001EF4  C08F  F02B         	movff	___sindf$1167+3,___flmul@b+3
  1605  001EF8  EC96  F00A         	call	___flmul	;wreg free
  1606  001EFC  C028  F045         	movff	?___flmul,___fladd@a
  1607  001F00  C029  F046         	movff	?___flmul+1,___fladd@a+1
  1608  001F04  C02A  F047         	movff	?___flmul+2,___fladd@a+2
  1609  001F08  C02B  F048         	movff	?___flmul+3,___fladd@a+3
  1610  001F0C  ECEE  F005         	call	___fladd	;wreg free
  1611  001F10  C041  F07C         	movff	?___fladd,?___sindf
  1612  001F14  C042  F07D         	movff	?___fladd+1,?___sindf+1
  1613  001F18  C043  F07E         	movff	?___fladd+2,?___sindf+2
  1614  001F1C  C044  F07F         	movff	?___fladd+3,?___sindf+3
  1615  001F20  0012               	return		;funcret
  1616  001F22                     __end_of___sindf:
  1617                           	opt callstack 0
  1618                           
  1619 ;; *************** function ___rem_pio2f *****************
  1620 ;; Defined at:
  1621 ;;		line 43 in file "C:\Program Files (x86)\Microchip\xc8\v2.10\pic\sources\c99\common\__rem_pio2f.c"
  1622 ;; Parameters:    Size  Location     Type
  1623 ;;  x               4   28[BANK0 ] float 
  1624 ;;  y               2   32[BANK0 ] PTR 
  1625 ;;		 -> cosf@y(4), 
  1626 ;; Auto vars:     Size  Location     Type
  1627 ;;  n               4   60[BANK0 ] long 
  1628 ;;  t               4   56[BANK0 ] float 
  1629 ;;  fn              4   52[BANK0 ] float 
  1630 ;;  u               4   44[BANK0 ] struct .
  1631 ;;  ix              4   38[BANK0 ] unsigned long 
  1632 ;;  ty              4   34[BANK0 ] [1]
  1633 ;;  tx              4    0        [1]
  1634 ;;  sign            2   42[BANK0 ] int 
  1635 ;; Return value:  Size  Location     Type
  1636 ;;                  2   28[BANK0 ] int 
  1637 ;; Registers used:
  1638 ;;		wreg, fsr2l, fsr2h, status,2, status,0, prodl, prodh, cstack
  1639 ;; Tracked objects:
  1640 ;;		On entry : 0/0
  1641 ;;		On exit  : 0/0
  1642 ;;		Unchanged: 0/0
  1643 ;; Data sizes:     COMRAM   BANK0   BANK1   BANK2   BANK3   BANK4   BANK5
  1644 ;;      Params:         0       6       0       0       0       0       0
  1645 ;;      Locals:         0      30       0       0       0       0       0
  1646 ;;      Temps:          4       0       0       0       0       0       0
  1647 ;;      Totals:         4      36       0       0       0       0       0
  1648 ;;Total ram usage:       40 bytes
  1649 ;; Hardware stack levels used:    1
  1650 ;; Hardware stack levels required when called:    2
  1651 ;; This function calls:
  1652 ;;		___fladd
  1653 ;;		___flmul
  1654 ;;		___flneg
  1655 ;;		___flsub
  1656 ;;		___fltol
  1657 ;;		___xxtofl
  1658 ;;		_fabsf
  1659 ;; This function is called by:
  1660 ;;		_cosf
  1661 ;; This function uses a non-reentrant model
  1662 ;;
  1663                           
  1664                           	psect	text3
  1665  00109C                     __ptext3:
  1666                           	opt callstack 0
  1667  00109C                     ___rem_pio2f:
  1668                           	opt callstack 27
  1669  00109C  C0D3  F08C         	movff	___rem_pio2f@F530,___rem_pio2f@u
  1670  0010A0  C0D4  F08D         	movff	___rem_pio2f@F530+1,___rem_pio2f@u+1
  1671  0010A4  C0D5  F08E         	movff	___rem_pio2f@F530+2,___rem_pio2f@u+2
  1672  0010A8  C0D6  F08F         	movff	___rem_pio2f@F530+3,___rem_pio2f@u+3
  1673  0010AC  C07C  F08C         	movff	___rem_pio2f@x,___rem_pio2f@u
  1674  0010B0  C07D  F08D         	movff	___rem_pio2f@x+1,___rem_pio2f@u+1
  1675  0010B4  C07E  F08E         	movff	___rem_pio2f@x+2,___rem_pio2f@u+2
  1676  0010B8  C07F  F08F         	movff	___rem_pio2f@x+3,___rem_pio2f@u+3
  1677  0010BC  C08C  F05B         	movff	___rem_pio2f@u,??___rem_pio2f
  1678  0010C0  C08D  F05C         	movff	___rem_pio2f@u+1,??___rem_pio2f+1
  1679  0010C4  C08E  F05D         	movff	___rem_pio2f@u+2,??___rem_pio2f+2
  1680  0010C8  C08F  F05E         	movff	___rem_pio2f@u+3,??___rem_pio2f+3
  1681  0010CC  0E20               	movlw	32
  1682  0010CE  EF6E  F008         	goto	u2010
  1683  0010D2                     u2015:
  1684  0010D2  90D8               	bcf	status,0,c
  1685  0010D4  325E               	rrcf	(??___rem_pio2f+3)^0,f,c
  1686  0010D6  325D               	rrcf	(??___rem_pio2f+2)^0,f,c
  1687  0010D8  325C               	rrcf	(??___rem_pio2f+1)^0,f,c
  1688  0010DA  325B               	rrcf	??___rem_pio2f^0,f,c
  1689  0010DC                     u2010:
  1690  0010DC  2EE8               	decfsz	wreg,f,c
  1691  0010DE  EF69  F008         	goto	u2015
  1692  0010E2  C05B  F08A         	movff	??___rem_pio2f,___rem_pio2f@sign
  1693  0010E6  C05C  F08B         	movff	??___rem_pio2f+1,___rem_pio2f@sign+1
  1694  0010EA  0EFF               	movlw	255
  1695  0010EC  0100               	movlb	0	; () banked
  1696  0010EE  158C               	andwf	___rem_pio2f@u& (0+255),w,b
  1697  0010F0  6F86               	movwf	___rem_pio2f@ix& (0+255),b
  1698  0010F2  0EFF               	movlw	255
  1699  0010F4  158D               	andwf	(___rem_pio2f@u+1)& (0+255),w,b
  1700  0010F6  6F87               	movwf	(___rem_pio2f@ix+1)& (0+255),b
  1701  0010F8  0EFF               	movlw	255
  1702  0010FA  158E               	andwf	(___rem_pio2f@u+2)& (0+255),w,b
  1703  0010FC  6F88               	movwf	(___rem_pio2f@ix+2)& (0+255),b
  1704  0010FE  0E7F               	movlw	127
  1705  001100  158F               	andwf	(___rem_pio2f@u+3)& (0+255),w,b
  1706  001102  6F89               	movwf	(___rem_pio2f@ix+3)& (0+255),b
  1707  001104  0E80               	movlw	128
  1708  001106  5D88               	subwf	(___rem_pio2f@ix+2)& (0+255),w,b
  1709  001108  0E7F               	movlw	127
  1710  00110A  5989               	subwfb	(___rem_pio2f@ix+3)& (0+255),w,b
  1711  00110C  A0D8               	btfss	status,0,c
  1712  00110E  EF8B  F008         	goto	u2021
  1713  001112  EF8D  F008         	goto	u2020
  1714  001116                     u2021:
  1715  001116  EFB2  F008         	goto	l2347
  1716  00111A                     u2020:
  1717  00111A                     
  1718                           ; BSR set to: 0
  1719  00111A  C07C  F051         	movff	___rem_pio2f@x,___flsub@b
  1720  00111E  C07D  F052         	movff	___rem_pio2f@x+1,___flsub@b+1
  1721  001122  C07E  F053         	movff	___rem_pio2f@x+2,___flsub@b+2
  1722  001126  C07F  F054         	movff	___rem_pio2f@x+3,___flsub@b+3
  1723  00112A  C07C  F055         	movff	___rem_pio2f@x,___flsub@a
  1724  00112E  C07D  F056         	movff	___rem_pio2f@x+1,___flsub@a+1
  1725  001132  C07E  F057         	movff	___rem_pio2f@x+2,___flsub@a+2
  1726  001136  C07F  F058         	movff	___rem_pio2f@x+3,___flsub@a+3
  1727  00113A  EC62  F012         	call	___flsub	;wreg free
  1728  00113E  C080  FFD9         	movff	___rem_pio2f@y,fsr2l
  1729  001142  C081  FFDA         	movff	___rem_pio2f@y+1,fsr2h
  1730  001146  C051  FFDE         	movff	?___flsub,postinc2
  1731  00114A  C052  FFDE         	movff	?___flsub+1,postinc2
  1732  00114E  C053  FFDE         	movff	?___flsub+2,postinc2
  1733  001152  C054  FFDE         	movff	?___flsub+3,postinc2
  1734  001156  0E00               	movlw	0
  1735  001158  0100               	movlb	0	; () banked
  1736  00115A  6F7D               	movwf	(?___rem_pio2f+1)& (0+255),b
  1737  00115C  0E00               	movlw	0
  1738  00115E  6F7C               	movwf	?___rem_pio2f& (0+255),b
  1739  001160  EF95  F00A         	goto	l924
  1740  001164                     l2347:
  1741                           
  1742                           ; BSR set to: 0
  1743  001164  0EDB               	movlw	219
  1744  001166  5D86               	subwf	___rem_pio2f@ix& (0+255),w,b
  1745  001168  0E0F               	movlw	15
  1746  00116A  5987               	subwfb	(___rem_pio2f@ix+1)& (0+255),w,b
  1747  00116C  0EC9               	movlw	201
  1748  00116E  5988               	subwfb	(___rem_pio2f@ix+2)& (0+255),w,b
  1749  001170  0E4D               	movlw	77
  1750  001172  5989               	subwfb	(___rem_pio2f@ix+3)& (0+255),w,b
  1751  001174  B0D8               	btfsc	status,0,c
  1752  001176  EFBF  F008         	goto	u2031
  1753  00117A  EFC1  F008         	goto	u2030
  1754  00117E                     u2031:
  1755  00117E  EFB1  F009         	goto	l2367
  1756  001182                     u2030:
  1757  001182                     
  1758                           ; BSR set to: 0
  1759  001182  C07C  F001         	movff	___rem_pio2f@x,fabsf@x
  1760  001186  C07D  F002         	movff	___rem_pio2f@x+1,fabsf@x+1
  1761  00118A  C07E  F003         	movff	___rem_pio2f@x+2,fabsf@x+2
  1762  00118E  C07F  F004         	movff	___rem_pio2f@x+3,fabsf@x+3
  1763  001192  ECE1  F012         	call	_fabsf	;wreg free
  1764  001196  C001  F098         	movff	?_fabsf,___rem_pio2f@t
  1765  00119A  C002  F099         	movff	?_fabsf+1,___rem_pio2f@t+1
  1766  00119E  C003  F09A         	movff	?_fabsf+2,___rem_pio2f@t+2
  1767  0011A2  C004  F09B         	movff	?_fabsf+3,___rem_pio2f@t+3
  1768  0011A6  0E00               	movlw	0
  1769  0011A8  6E45               	movwf	___fladd@a^0,c
  1770  0011AA  0E00               	movlw	0
  1771  0011AC  6E46               	movwf	(___fladd@a+1)^0,c
  1772  0011AE  0E00               	movlw	0
  1773  0011B0  6E47               	movwf	(___fladd@a+2)^0,c
  1774  0011B2  0E3F               	movlw	63
  1775  0011B4  6E48               	movwf	(___fladd@a+3)^0,c
  1776  0011B6  0E83               	movlw	131
  1777  0011B8  6E2C               	movwf	___flmul@a^0,c
  1778  0011BA  0EF9               	movlw	249
  1779  0011BC  6E2D               	movwf	(___flmul@a+1)^0,c
  1780  0011BE  0E22               	movlw	34
  1781  0011C0  6E2E               	movwf	(___flmul@a+2)^0,c
  1782  0011C2  0E3F               	movlw	63
  1783  0011C4  6E2F               	movwf	(___flmul@a+3)^0,c
  1784  0011C6  C098  F028         	movff	___rem_pio2f@t,___flmul@b
  1785  0011CA  C099  F029         	movff	___rem_pio2f@t+1,___flmul@b+1
  1786  0011CE  C09A  F02A         	movff	___rem_pio2f@t+2,___flmul@b+2
  1787  0011D2  C09B  F02B         	movff	___rem_pio2f@t+3,___flmul@b+3
  1788  0011D6  EC96  F00A         	call	___flmul	;wreg free
  1789  0011DA  C028  F041         	movff	?___flmul,___fladd@b
  1790  0011DE  C029  F042         	movff	?___flmul+1,___fladd@b+1
  1791  0011E2  C02A  F043         	movff	?___flmul+2,___fladd@b+2
  1792  0011E6  C02B  F044         	movff	?___flmul+3,___fladd@b+3
  1793  0011EA  ECEE  F005         	call	___fladd	;wreg free
  1794  0011EE  C041  F051         	movff	?___fladd,___fltol@f1
  1795  0011F2  C042  F052         	movff	?___fladd+1,___fltol@f1+1
  1796  0011F6  C043  F053         	movff	?___fladd+2,___fltol@f1+2
  1797  0011FA  C044  F054         	movff	?___fladd+3,___fltol@f1+3
  1798  0011FE  EC6A  F011         	call	___fltol	;wreg free
  1799  001202  C051  F09C         	movff	?___fltol,___rem_pio2f@n
  1800  001206  C052  F09D         	movff	?___fltol+1,___rem_pio2f@n+1
  1801  00120A  C053  F09E         	movff	?___fltol+2,___rem_pio2f@n+2
  1802  00120E  C054  F09F         	movff	?___fltol+3,___rem_pio2f@n+3
  1803  001212  C09C  F001         	movff	___rem_pio2f@n,___xxtofl@val
  1804  001216  C09D  F002         	movff	___rem_pio2f@n+1,___xxtofl@val+1
  1805  00121A  C09E  F003         	movff	___rem_pio2f@n+2,___xxtofl@val+2
  1806  00121E  C09F  F004         	movff	___rem_pio2f@n+3,___xxtofl@val+3
  1807  001222  0E01               	movlw	1
  1808  001224  EC90  F010         	call	___xxtofl
  1809  001228  C001  F094         	movff	?___xxtofl,___rem_pio2f@fn
  1810  00122C  C002  F095         	movff	?___xxtofl+1,___rem_pio2f@fn+1
  1811  001230  C003  F096         	movff	?___xxtofl+2,___rem_pio2f@fn+2
  1812  001234  C004  F097         	movff	?___xxtofl+3,___rem_pio2f@fn+3
  1813  001238  0EDA               	movlw	218
  1814  00123A  6E2C               	movwf	___flmul@a^0,c
  1815  00123C  0E0F               	movlw	15
  1816  00123E  6E2D               	movwf	(___flmul@a+1)^0,c
  1817  001240  0EC9               	movlw	201
  1818  001242  6E2E               	movwf	(___flmul@a+2)^0,c
  1819  001244  0E3F               	movlw	63
  1820  001246  6E2F               	movwf	(___flmul@a+3)^0,c
  1821  001248  C094  F028         	movff	___rem_pio2f@fn,___flmul@b
  1822  00124C  C095  F029         	movff	___rem_pio2f@fn+1,___flmul@b+1
  1823  001250  C096  F02A         	movff	___rem_pio2f@fn+2,___flmul@b+2
  1824  001254  C097  F02B         	movff	___rem_pio2f@fn+3,___flmul@b+3
  1825  001258  EC96  F00A         	call	___flmul	;wreg free
  1826  00125C  C028  F055         	movff	?___flmul,___flsub@a
  1827  001260  C029  F056         	movff	?___flmul+1,___flsub@a+1
  1828  001264  C02A  F057         	movff	?___flmul+2,___flsub@a+2
  1829  001268  C02B  F058         	movff	?___flmul+3,___flsub@a+3
  1830  00126C  C098  F051         	movff	___rem_pio2f@t,___flsub@b
  1831  001270  C099  F052         	movff	___rem_pio2f@t+1,___flsub@b+1
  1832  001274  C09A  F053         	movff	___rem_pio2f@t+2,___flsub@b+2
  1833  001278  C09B  F054         	movff	___rem_pio2f@t+3,___flsub@b+3
  1834  00127C  EC62  F012         	call	___flsub	;wreg free
  1835  001280  C051  F090         	movff	?___flsub,___rem_pio2f$1165
  1836  001284  C052  F091         	movff	?___flsub+1,___rem_pio2f$1165+1
  1837  001288  C053  F092         	movff	?___flsub+2,___rem_pio2f$1165+2
  1838  00128C  C054  F093         	movff	?___flsub+3,___rem_pio2f$1165+3
  1839  001290  C090  F051         	movff	___rem_pio2f$1165,___flsub@b
  1840  001294  C091  F052         	movff	___rem_pio2f$1165+1,___flsub@b+1
  1841  001298  C092  F053         	movff	___rem_pio2f$1165+2,___flsub@b+2
  1842  00129C  C093  F054         	movff	___rem_pio2f$1165+3,___flsub@b+3
  1843  0012A0  0EA3               	movlw	163
  1844  0012A2  6E2C               	movwf	___flmul@a^0,c
  1845  0012A4  0E85               	movlw	133
  1846  0012A6  6E2D               	movwf	(___flmul@a+1)^0,c
  1847  0012A8  0E88               	movlw	136
  1848  0012AA  6E2E               	movwf	(___flmul@a+2)^0,c
  1849  0012AC  0E32               	movlw	50
  1850  0012AE  6E2F               	movwf	(___flmul@a+3)^0,c
  1851  0012B0  C094  F028         	movff	___rem_pio2f@fn,___flmul@b
  1852  0012B4  C095  F029         	movff	___rem_pio2f@fn+1,___flmul@b+1
  1853  0012B8  C096  F02A         	movff	___rem_pio2f@fn+2,___flmul@b+2
  1854  0012BC  C097  F02B         	movff	___rem_pio2f@fn+3,___flmul@b+3
  1855  0012C0  EC96  F00A         	call	___flmul	;wreg free
  1856  0012C4  C028  F055         	movff	?___flmul,___flsub@a
  1857  0012C8  C029  F056         	movff	?___flmul+1,___flsub@a+1
  1858  0012CC  C02A  F057         	movff	?___flmul+2,___flsub@a+2
  1859  0012D0  C02B  F058         	movff	?___flmul+3,___flsub@a+3
  1860  0012D4  EC62  F012         	call	___flsub	;wreg free
  1861  0012D8  C080  FFD9         	movff	___rem_pio2f@y,fsr2l
  1862  0012DC  C081  FFDA         	movff	___rem_pio2f@y+1,fsr2h
  1863  0012E0  C051  FFDE         	movff	?___flsub,postinc2
  1864  0012E4  C052  FFDE         	movff	?___flsub+1,postinc2
  1865  0012E8  C053  FFDE         	movff	?___flsub+2,postinc2
  1866  0012EC  C054  FFDE         	movff	?___flsub+3,postinc2
  1867  0012F0  0100               	movlb	0	; () banked
  1868  0012F2  518A               	movf	___rem_pio2f@sign& (0+255),w,b
  1869  0012F4  118B               	iorwf	(___rem_pio2f@sign+1)& (0+255),w,b
  1870  0012F6  B4D8               	btfsc	status,2,c
  1871  0012F8  EF80  F009         	goto	u2041
  1872  0012FC  EF82  F009         	goto	u2040
  1873  001300                     u2041:
  1874  001300  EFAB  F009         	goto	l926
  1875  001304                     u2040:
  1876  001304                     
  1877                           ; BSR set to: 0
  1878  001304  C080  FFD9         	movff	___rem_pio2f@y,fsr2l
  1879  001308  C081  FFDA         	movff	___rem_pio2f@y+1,fsr2h
  1880  00130C  CFDE F078          	movff	postinc2,___flneg@f1
  1881  001310  CFDE F079          	movff	postinc2,___flneg@f1+1
  1882  001314  CFDE F07A          	movff	postinc2,___flneg@f1+2
  1883  001318  CFDE F07B          	movff	postinc2,___flneg@f1+3
  1884  00131C  ECC4  F012         	call	___flneg	;wreg free
  1885  001320  C080  FFD9         	movff	___rem_pio2f@y,fsr2l
  1886  001324  C081  FFDA         	movff	___rem_pio2f@y+1,fsr2h
  1887  001328  0100               	movlb	0	; () banked
  1888  00132A  C078  FFDE         	movff	?___flneg,postinc2
  1889  00132E  C079  FFDE         	movff	?___flneg+1,postinc2
  1890  001332  C07A  FFDE         	movff	?___flneg+2,postinc2
  1891  001336  C07B  FFDE         	movff	?___flneg+3,postinc2
  1892  00133A                     l2363:
  1893                           
  1894                           ; BSR set to: 0
  1895  00133A  C09C  F05B         	movff	___rem_pio2f@n,??___rem_pio2f
  1896  00133E  C09D  F05C         	movff	___rem_pio2f@n+1,??___rem_pio2f+1
  1897  001342  1E5B               	comf	??___rem_pio2f^0,f,c
  1898  001344  1E5C               	comf	(??___rem_pio2f+1)^0,f,c
  1899  001346  4A5B               	infsnz	??___rem_pio2f^0,f,c
  1900  001348  2A5C               	incf	(??___rem_pio2f+1)^0,f,c
  1901  00134A  C05B  F07C         	movff	??___rem_pio2f,?___rem_pio2f
  1902  00134E  C05C  F07D         	movff	??___rem_pio2f+1,?___rem_pio2f+1
  1903  001352  EF95  F00A         	goto	l924
  1904  001356                     l926:
  1905                           
  1906                           ; BSR set to: 0
  1907  001356  C09C  F07C         	movff	___rem_pio2f@n,?___rem_pio2f
  1908  00135A  C09D  F07D         	movff	___rem_pio2f@n+1,?___rem_pio2f+1
  1909  00135E  EF95  F00A         	goto	l924
  1910  001362                     l2367:
  1911                           
  1912                           ; BSR set to: 0
  1913  001362  C07C  F001         	movff	___rem_pio2f@x,fabsf@x
  1914  001366  C07D  F002         	movff	___rem_pio2f@x+1,fabsf@x+1
  1915  00136A  C07E  F003         	movff	___rem_pio2f@x+2,fabsf@x+2
  1916  00136E  C07F  F004         	movff	___rem_pio2f@x+3,fabsf@x+3
  1917  001372  ECE1  F012         	call	_fabsf	;wreg free
  1918  001376  C001  F098         	movff	?_fabsf,___rem_pio2f@t
  1919  00137A  C002  F099         	movff	?_fabsf+1,___rem_pio2f@t+1
  1920  00137E  C003  F09A         	movff	?_fabsf+2,___rem_pio2f@t+2
  1921  001382  C004  F09B         	movff	?_fabsf+3,___rem_pio2f@t+3
  1922  001386  0E00               	movlw	0
  1923  001388  6E45               	movwf	___fladd@a^0,c
  1924  00138A  0E00               	movlw	0
  1925  00138C  6E46               	movwf	(___fladd@a+1)^0,c
  1926  00138E  0E00               	movlw	0
  1927  001390  6E47               	movwf	(___fladd@a+2)^0,c
  1928  001392  0E3F               	movlw	63
  1929  001394  6E48               	movwf	(___fladd@a+3)^0,c
  1930  001396  0E83               	movlw	131
  1931  001398  6E2C               	movwf	___flmul@a^0,c
  1932  00139A  0EF9               	movlw	249
  1933  00139C  6E2D               	movwf	(___flmul@a+1)^0,c
  1934  00139E  0E22               	movlw	34
  1935  0013A0  6E2E               	movwf	(___flmul@a+2)^0,c
  1936  0013A2  0E3F               	movlw	63
  1937  0013A4  6E2F               	movwf	(___flmul@a+3)^0,c
  1938  0013A6  C098  F028         	movff	___rem_pio2f@t,___flmul@b
  1939  0013AA  C099  F029         	movff	___rem_pio2f@t+1,___flmul@b+1
  1940  0013AE  C09A  F02A         	movff	___rem_pio2f@t+2,___flmul@b+2
  1941  0013B2  C09B  F02B         	movff	___rem_pio2f@t+3,___flmul@b+3
  1942  0013B6  EC96  F00A         	call	___flmul	;wreg free
  1943  0013BA  C028  F041         	movff	?___flmul,___fladd@b
  1944  0013BE  C029  F042         	movff	?___flmul+1,___fladd@b+1
  1945  0013C2  C02A  F043         	movff	?___flmul+2,___fladd@b+2
  1946  0013C6  C02B  F044         	movff	?___flmul+3,___fladd@b+3
  1947  0013CA  ECEE  F005         	call	___fladd	;wreg free
  1948  0013CE  C041  F051         	movff	?___fladd,___fltol@f1
  1949  0013D2  C042  F052         	movff	?___fladd+1,___fltol@f1+1
  1950  0013D6  C043  F053         	movff	?___fladd+2,___fltol@f1+2
  1951  0013DA  C044  F054         	movff	?___fladd+3,___fltol@f1+3
  1952  0013DE  EC6A  F011         	call	___fltol	;wreg free
  1953  0013E2  C051  F09C         	movff	?___fltol,___rem_pio2f@n
  1954  0013E6  C052  F09D         	movff	?___fltol+1,___rem_pio2f@n+1
  1955  0013EA  C053  F09E         	movff	?___fltol+2,___rem_pio2f@n+2
  1956  0013EE  C054  F09F         	movff	?___fltol+3,___rem_pio2f@n+3
  1957  0013F2  C09C  F001         	movff	___rem_pio2f@n,___xxtofl@val
  1958  0013F6  C09D  F002         	movff	___rem_pio2f@n+1,___xxtofl@val+1
  1959  0013FA  C09E  F003         	movff	___rem_pio2f@n+2,___xxtofl@val+2
  1960  0013FE  C09F  F004         	movff	___rem_pio2f@n+3,___xxtofl@val+3
  1961  001402  0E01               	movlw	1
  1962  001404  EC90  F010         	call	___xxtofl
  1963  001408  C001  F094         	movff	?___xxtofl,___rem_pio2f@fn
  1964  00140C  C002  F095         	movff	?___xxtofl+1,___rem_pio2f@fn+1
  1965  001410  C003  F096         	movff	?___xxtofl+2,___rem_pio2f@fn+2
  1966  001414  C004  F097         	movff	?___xxtofl+3,___rem_pio2f@fn+3
  1967  001418  0EDA               	movlw	218
  1968  00141A  6E2C               	movwf	___flmul@a^0,c
  1969  00141C  0E0F               	movlw	15
  1970  00141E  6E2D               	movwf	(___flmul@a+1)^0,c
  1971  001420  0EC9               	movlw	201
  1972  001422  6E2E               	movwf	(___flmul@a+2)^0,c
  1973  001424  0E3F               	movlw	63
  1974  001426  6E2F               	movwf	(___flmul@a+3)^0,c
  1975  001428  C094  F028         	movff	___rem_pio2f@fn,___flmul@b
  1976  00142C  C095  F029         	movff	___rem_pio2f@fn+1,___flmul@b+1
  1977  001430  C096  F02A         	movff	___rem_pio2f@fn+2,___flmul@b+2
  1978  001434  C097  F02B         	movff	___rem_pio2f@fn+3,___flmul@b+3
  1979  001438  EC96  F00A         	call	___flmul	;wreg free
  1980  00143C  C028  F055         	movff	?___flmul,___flsub@a
  1981  001440  C029  F056         	movff	?___flmul+1,___flsub@a+1
  1982  001444  C02A  F057         	movff	?___flmul+2,___flsub@a+2
  1983  001448  C02B  F058         	movff	?___flmul+3,___flsub@a+3
  1984  00144C  C098  F051         	movff	___rem_pio2f@t,___flsub@b
  1985  001450  C099  F052         	movff	___rem_pio2f@t+1,___flsub@b+1
  1986  001454  C09A  F053         	movff	___rem_pio2f@t+2,___flsub@b+2
  1987  001458  C09B  F054         	movff	___rem_pio2f@t+3,___flsub@b+3
  1988  00145C  EC62  F012         	call	___flsub	;wreg free
  1989  001460  C051  F090         	movff	?___flsub,___rem_pio2f$1165
  1990  001464  C052  F091         	movff	?___flsub+1,___rem_pio2f$1165+1
  1991  001468  C053  F092         	movff	?___flsub+2,___rem_pio2f$1165+2
  1992  00146C  C054  F093         	movff	?___flsub+3,___rem_pio2f$1165+3
  1993  001470  C090  F051         	movff	___rem_pio2f$1165,___flsub@b
  1994  001474  C091  F052         	movff	___rem_pio2f$1165+1,___flsub@b+1
  1995  001478  C092  F053         	movff	___rem_pio2f$1165+2,___flsub@b+2
  1996  00147C  C093  F054         	movff	___rem_pio2f$1165+3,___flsub@b+3
  1997  001480  0EA3               	movlw	163
  1998  001482  6E2C               	movwf	___flmul@a^0,c
  1999  001484  0E85               	movlw	133
  2000  001486  6E2D               	movwf	(___flmul@a+1)^0,c
  2001  001488  0E88               	movlw	136
  2002  00148A  6E2E               	movwf	(___flmul@a+2)^0,c
  2003  00148C  0E32               	movlw	50
  2004  00148E  6E2F               	movwf	(___flmul@a+3)^0,c
  2005  001490  C094  F028         	movff	___rem_pio2f@fn,___flmul@b
  2006  001494  C095  F029         	movff	___rem_pio2f@fn+1,___flmul@b+1
  2007  001498  C096  F02A         	movff	___rem_pio2f@fn+2,___flmul@b+2
  2008  00149C  C097  F02B         	movff	___rem_pio2f@fn+3,___flmul@b+3
  2009  0014A0  EC96  F00A         	call	___flmul	;wreg free
  2010  0014A4  C028  F055         	movff	?___flmul,___flsub@a
  2011  0014A8  C029  F056         	movff	?___flmul+1,___flsub@a+1
  2012  0014AC  C02A  F057         	movff	?___flmul+2,___flsub@a+2
  2013  0014B0  C02B  F058         	movff	?___flmul+3,___flsub@a+3
  2014  0014B4  EC62  F012         	call	___flsub	;wreg free
  2015  0014B8  C051  F082         	movff	?___flsub,___rem_pio2f@ty
  2016  0014BC  C052  F083         	movff	?___flsub+1,___rem_pio2f@ty+1
  2017  0014C0  C053  F084         	movff	?___flsub+2,___rem_pio2f@ty+2
  2018  0014C4  C054  F085         	movff	?___flsub+3,___rem_pio2f@ty+3
  2019  0014C8  0100               	movlb	0	; () banked
  2020  0014CA  518A               	movf	___rem_pio2f@sign& (0+255),w,b
  2021  0014CC  118B               	iorwf	(___rem_pio2f@sign+1)& (0+255),w,b
  2022  0014CE  B4D8               	btfsc	status,2,c
  2023  0014D0  EF6C  F00A         	goto	u2051
  2024  0014D4  EF6E  F00A         	goto	u2050
  2025  0014D8                     u2051:
  2026  0014D8  EF87  F00A         	goto	l2385
  2027  0014DC                     u2050:
  2028  0014DC                     
  2029                           ; BSR set to: 0
  2030  0014DC  C082  F078         	movff	___rem_pio2f@ty,___flneg@f1
  2031  0014E0  C083  F079         	movff	___rem_pio2f@ty+1,___flneg@f1+1
  2032  0014E4  C084  F07A         	movff	___rem_pio2f@ty+2,___flneg@f1+2
  2033  0014E8  C085  F07B         	movff	___rem_pio2f@ty+3,___flneg@f1+3
  2034  0014EC  ECC4  F012         	call	___flneg	;wreg free
  2035  0014F0  C080  FFD9         	movff	___rem_pio2f@y,fsr2l
  2036  0014F4  C081  FFDA         	movff	___rem_pio2f@y+1,fsr2h
  2037  0014F8  0100               	movlb	0	; () banked
  2038  0014FA  C078  FFDE         	movff	?___flneg,postinc2
  2039  0014FE  C079  FFDE         	movff	?___flneg+1,postinc2
  2040  001502  C07A  FFDE         	movff	?___flneg+2,postinc2
  2041  001506  C07B  FFDE         	movff	?___flneg+3,postinc2
  2042  00150A  EF9D  F009         	goto	l2363
  2043  00150E                     l2385:
  2044                           
  2045                           ; BSR set to: 0
  2046  00150E  C080  FFD9         	movff	___rem_pio2f@y,fsr2l
  2047  001512  C081  FFDA         	movff	___rem_pio2f@y+1,fsr2h
  2048  001516  C082  FFDE         	movff	___rem_pio2f@ty,postinc2
  2049  00151A  C083  FFDE         	movff	___rem_pio2f@ty+1,postinc2
  2050  00151E  C084  FFDE         	movff	___rem_pio2f@ty+2,postinc2
  2051  001522  C085  FFDE         	movff	___rem_pio2f@ty+3,postinc2
  2052  001526  EFAB  F009         	goto	l926
  2053  00152A                     l924:
  2054                           
  2055                           ; BSR set to: 0
  2056  00152A  0012               	return		;funcret
  2057  00152C                     __end_of___rem_pio2f:
  2058                           	opt callstack 0
  2059                           
  2060 ;; *************** function _fabsf *****************
  2061 ;; Defined at:
  2062 ;;		line 4 in file "C:\Program Files (x86)\Microchip\xc8\v2.10\pic\sources\c99\common\fabsf.c"
  2063 ;; Parameters:    Size  Location     Type
  2064 ;;  x               4    0[COMRAM] float 
  2065 ;; Auto vars:     Size  Location     Type
  2066 ;;  u               4    4[COMRAM] struct .
  2067 ;; Return value:  Size  Location     Type
  2068 ;;                  4    0[COMRAM] float 
  2069 ;; Registers used:
  2070 ;;		status,2, status,0
  2071 ;; Tracked objects:
  2072 ;;		On entry : 0/0
  2073 ;;		On exit  : 0/0
  2074 ;;		Unchanged: 0/0
  2075 ;; Data sizes:     COMRAM   BANK0   BANK1   BANK2   BANK3   BANK4   BANK5
  2076 ;;      Params:         4       0       0       0       0       0       0
  2077 ;;      Locals:         4       0       0       0       0       0       0
  2078 ;;      Temps:          0       0       0       0       0       0       0
  2079 ;;      Totals:         8       0       0       0       0       0       0
  2080 ;;Total ram usage:        8 bytes
  2081 ;; Hardware stack levels used:    1
  2082 ;; This function calls:
  2083 ;;		Nothing
  2084 ;; This function is called by:
  2085 ;;		___rem_pio2f
  2086 ;; This function uses a non-reentrant model
  2087 ;;
  2088                           
  2089                           	psect	text4
  2090  0025C2                     __ptext4:
  2091                           	opt callstack 0
  2092  0025C2                     _fabsf:
  2093                           	opt callstack 28
  2094  0025C2  C0CF  F005         	movff	fabsf@F463,fabsf@u
  2095  0025C6  C0D0  F006         	movff	fabsf@F463+1,fabsf@u+1
  2096  0025CA  C0D1  F007         	movff	fabsf@F463+2,fabsf@u+2
  2097  0025CE  C0D2  F008         	movff	fabsf@F463+3,fabsf@u+3
  2098  0025D2  C001  F005         	movff	fabsf@x,fabsf@u
  2099  0025D6  C002  F006         	movff	fabsf@x+1,fabsf@u+1
  2100  0025DA  C003  F007         	movff	fabsf@x+2,fabsf@u+2
  2101  0025DE  C004  F008         	movff	fabsf@x+3,fabsf@u+3
  2102  0025E2  9E08               	bcf	(fabsf@u+3)^0,7,c
  2103  0025E4  C005  F001         	movff	fabsf@u,?_fabsf
  2104  0025E8  C006  F002         	movff	fabsf@u+1,?_fabsf+1
  2105  0025EC  C007  F003         	movff	fabsf@u+2,?_fabsf+2
  2106  0025F0  C008  F004         	movff	fabsf@u+3,?_fabsf+3
  2107  0025F4  0012               	return		;funcret
  2108  0025F6                     __end_of_fabsf:
  2109                           	opt callstack 0
  2110                           
  2111 ;; *************** function ___xxtofl *****************
  2112 ;; Defined at:
  2113 ;;		line 10 in file "C:\Program Files (x86)\Microchip\xc8\v2.10\pic\sources\c99\common\xxtofl.c"
  2114 ;; Parameters:    Size  Location     Type
  2115 ;;  sign            1    wreg     unsigned char 
  2116 ;;  val             4    0[COMRAM] long 
  2117 ;; Auto vars:     Size  Location     Type
  2118 ;;  sign            1    8[COMRAM] unsigned char 
  2119 ;;  arg             4   10[COMRAM] unsigned long 
  2120 ;;  exp             1    9[COMRAM] unsigned char 
  2121 ;; Return value:  Size  Location     Type
  2122 ;;                  4    0[COMRAM] unsigned char 
  2123 ;; Registers used:
  2124 ;;		wreg, status,2, status,0
  2125 ;; Tracked objects:
  2126 ;;		On entry : 0/0
  2127 ;;		On exit  : 0/0
  2128 ;;		Unchanged: 0/0
  2129 ;; Data sizes:     COMRAM   BANK0   BANK1   BANK2   BANK3   BANK4   BANK5
  2130 ;;      Params:         4       0       0       0       0       0       0
  2131 ;;      Locals:         6       0       0       0       0       0       0
  2132 ;;      Temps:          4       0       0       0       0       0       0
  2133 ;;      Totals:        14       0       0       0       0       0       0
  2134 ;;Total ram usage:       14 bytes
  2135 ;; Hardware stack levels used:    1
  2136 ;; This function calls:
  2137 ;;		Nothing
  2138 ;; This function is called by:
  2139 ;;		_main
  2140 ;;		___rem_pio2f
  2141 ;; This function uses a non-reentrant model
  2142 ;;
  2143                           
  2144                           	psect	text5
  2145  002120                     __ptext5:
  2146                           	opt callstack 0
  2147  002120                     ___xxtofl:
  2148                           	opt callstack 28
  2149                           
  2150                           ;incstack = 0
  2151                           ;___xxtofl@sign stored from wreg
  2152  002120  6E09               	movwf	___xxtofl@sign^0,c
  2153  002122  5009               	movf	___xxtofl@sign^0,w,c
  2154  002124  B4D8               	btfsc	status,2,c
  2155  002126  EF97  F010         	goto	u1911
  2156  00212A  EF99  F010         	goto	u1910
  2157  00212E                     u1911:
  2158  00212E  EFBB  F010         	goto	l833
  2159  002132                     u1910:
  2160  002132  BE04               	btfsc	(___xxtofl@val+3)^0,7,c
  2161  002134  EFA0  F010         	goto	u1920
  2162  002138  EF9E  F010         	goto	u1921
  2163  00213C                     u1921:
  2164  00213C  EFBB  F010         	goto	l833
  2165  002140                     u1920:
  2166  002140  C001  F005         	movff	___xxtofl@val,??___xxtofl
  2167  002144  C002  F006         	movff	___xxtofl@val+1,??___xxtofl+1
  2168  002148  C003  F007         	movff	___xxtofl@val+2,??___xxtofl+2
  2169  00214C  C004  F008         	movff	___xxtofl@val+3,??___xxtofl+3
  2170  002150  1E05               	comf	??___xxtofl^0,f,c
  2171  002152  1E06               	comf	(??___xxtofl+1)^0,f,c
  2172  002154  1E07               	comf	(??___xxtofl+2)^0,f,c
  2173  002156  1E08               	comf	(??___xxtofl+3)^0,f,c
  2174  002158  2A05               	incf	??___xxtofl^0,f,c
  2175  00215A  0E00               	movlw	0
  2176  00215C  2206               	addwfc	(??___xxtofl+1)^0,f,c
  2177  00215E  2207               	addwfc	(??___xxtofl+2)^0,f,c
  2178  002160  2208               	addwfc	(??___xxtofl+3)^0,f,c
  2179  002162  C005  F00B         	movff	??___xxtofl,___xxtofl@arg
  2180  002166  C006  F00C         	movff	??___xxtofl+1,___xxtofl@arg+1
  2181  00216A  C007  F00D         	movff	??___xxtofl+2,___xxtofl@arg+2
  2182  00216E  C008  F00E         	movff	??___xxtofl+3,___xxtofl@arg+3
  2183  002172  EFC3  F010         	goto	l2259
  2184  002176                     l833:
  2185  002176  C001  F00B         	movff	___xxtofl@val,___xxtofl@arg
  2186  00217A  C002  F00C         	movff	___xxtofl@val+1,___xxtofl@arg+1
  2187  00217E  C003  F00D         	movff	___xxtofl@val+2,___xxtofl@arg+2
  2188  002182  C004  F00E         	movff	___xxtofl@val+3,___xxtofl@arg+3
  2189  002186                     l2259:
  2190  002186  5001               	movf	___xxtofl@val^0,w,c
  2191  002188  1002               	iorwf	(___xxtofl@val+1)^0,w,c
  2192  00218A  1003               	iorwf	(___xxtofl@val+2)^0,w,c
  2193  00218C  1004               	iorwf	(___xxtofl@val+3)^0,w,c
  2194  00218E  A4D8               	btfss	status,2,c
  2195  002190  EFCC  F010         	goto	u1931
  2196  002194  EFCE  F010         	goto	u1930
  2197  002198                     u1931:
  2198  002198  EFD8  F010         	goto	l2265
  2199  00219C                     u1930:
  2200  00219C  0E00               	movlw	0
  2201  00219E  6E01               	movwf	?___xxtofl^0,c
  2202  0021A0  0E00               	movlw	0
  2203  0021A2  6E02               	movwf	(?___xxtofl+1)^0,c
  2204  0021A4  0E00               	movlw	0
  2205  0021A6  6E03               	movwf	(?___xxtofl+2)^0,c
  2206  0021A8  0E00               	movlw	0
  2207  0021AA  6E04               	movwf	(?___xxtofl+3)^0,c
  2208  0021AC  EF69  F011         	goto	l836
  2209  0021B0                     l2265:
  2210  0021B0  0E96               	movlw	150
  2211  0021B2  6E0A               	movwf	___xxtofl@exp^0,c
  2212  0021B4  EFE2  F010         	goto	l2269
  2213  0021B8                     l2267:
  2214  0021B8  2A0A               	incf	___xxtofl@exp^0,f,c
  2215  0021BA  90D8               	bcf	status,0,c
  2216  0021BC  320E               	rrcf	(___xxtofl@arg+3)^0,f,c
  2217  0021BE  320D               	rrcf	(___xxtofl@arg+2)^0,f,c
  2218  0021C0  320C               	rrcf	(___xxtofl@arg+1)^0,f,c
  2219  0021C2  320B               	rrcf	___xxtofl@arg^0,f,c
  2220  0021C4                     l2269:
  2221  0021C4  0E00               	movlw	0
  2222  0021C6  140B               	andwf	___xxtofl@arg^0,w,c
  2223  0021C8  6E05               	movwf	??___xxtofl^0,c
  2224  0021CA  0E00               	movlw	0
  2225  0021CC  140C               	andwf	(___xxtofl@arg+1)^0,w,c
  2226  0021CE  6E06               	movwf	(??___xxtofl+1)^0,c
  2227  0021D0  0E00               	movlw	0
  2228  0021D2  140D               	andwf	(___xxtofl@arg+2)^0,w,c
  2229  0021D4  6E07               	movwf	(??___xxtofl+2)^0,c
  2230  0021D6  0EFE               	movlw	254
  2231  0021D8  140E               	andwf	(___xxtofl@arg+3)^0,w,c
  2232  0021DA  6E08               	movwf	(??___xxtofl+3)^0,c
  2233  0021DC  5005               	movf	??___xxtofl^0,w,c
  2234  0021DE  1006               	iorwf	(??___xxtofl+1)^0,w,c
  2235  0021E0  1007               	iorwf	(??___xxtofl+2)^0,w,c
  2236  0021E2  1008               	iorwf	(??___xxtofl+3)^0,w,c
  2237  0021E4  A4D8               	btfss	status,2,c
  2238  0021E6  EFF7  F010         	goto	u1941
  2239  0021EA  EFF9  F010         	goto	u1940
  2240  0021EE                     u1941:
  2241  0021EE  EFDC  F010         	goto	l2267
  2242  0021F2                     u1940:
  2243  0021F2  EF07  F011         	goto	l840
  2244  0021F6                     l2271:
  2245  0021F6  2A0A               	incf	___xxtofl@exp^0,f,c
  2246  0021F8  0E01               	movlw	1
  2247  0021FA  260B               	addwf	___xxtofl@arg^0,f,c
  2248  0021FC  0E00               	movlw	0
  2249  0021FE  220C               	addwfc	(___xxtofl@arg+1)^0,f,c
  2250  002200  220D               	addwfc	(___xxtofl@arg+2)^0,f,c
  2251  002202  220E               	addwfc	(___xxtofl@arg+3)^0,f,c
  2252  002204  90D8               	bcf	status,0,c
  2253  002206  320E               	rrcf	(___xxtofl@arg+3)^0,f,c
  2254  002208  320D               	rrcf	(___xxtofl@arg+2)^0,f,c
  2255  00220A  320C               	rrcf	(___xxtofl@arg+1)^0,f,c
  2256  00220C  320B               	rrcf	___xxtofl@arg^0,f,c
  2257  00220E                     l840:
  2258  00220E  0E00               	movlw	0
  2259  002210  140B               	andwf	___xxtofl@arg^0,w,c
  2260  002212  6E05               	movwf	??___xxtofl^0,c
  2261  002214  0E00               	movlw	0
  2262  002216  140C               	andwf	(___xxtofl@arg+1)^0,w,c
  2263  002218  6E06               	movwf	(??___xxtofl+1)^0,c
  2264  00221A  0E00               	movlw	0
  2265  00221C  140D               	andwf	(___xxtofl@arg+2)^0,w,c
  2266  00221E  6E07               	movwf	(??___xxtofl+2)^0,c
  2267  002220  0EFF               	movlw	255
  2268  002222  140E               	andwf	(___xxtofl@arg+3)^0,w,c
  2269  002224  6E08               	movwf	(??___xxtofl+3)^0,c
  2270  002226  5005               	movf	??___xxtofl^0,w,c
  2271  002228  1006               	iorwf	(??___xxtofl+1)^0,w,c
  2272  00222A  1007               	iorwf	(??___xxtofl+2)^0,w,c
  2273  00222C  1008               	iorwf	(??___xxtofl+3)^0,w,c
  2274  00222E  A4D8               	btfss	status,2,c
  2275  002230  EF1C  F011         	goto	u1951
  2276  002234  EF1E  F011         	goto	u1950
  2277  002238                     u1951:
  2278  002238  EFFB  F010         	goto	l2271
  2279  00223C                     u1950:
  2280  00223C  EF26  F011         	goto	l2279
  2281  002240                     l2277:
  2282  002240  060A               	decf	___xxtofl@exp^0,f,c
  2283  002242  90D8               	bcf	status,0,c
  2284  002244  360B               	rlcf	___xxtofl@arg^0,f,c
  2285  002246  360C               	rlcf	(___xxtofl@arg+1)^0,f,c
  2286  002248  360D               	rlcf	(___xxtofl@arg+2)^0,f,c
  2287  00224A  360E               	rlcf	(___xxtofl@arg+3)^0,f,c
  2288  00224C                     l2279:
  2289  00224C  BE0D               	btfsc	(___xxtofl@arg+2)^0,7,c
  2290  00224E  EF2B  F011         	goto	u1961
  2291  002252  EF2D  F011         	goto	u1960
  2292  002256                     u1961:
  2293  002256  EF35  F011         	goto	l847
  2294  00225A                     u1960:
  2295  00225A  0E02               	movlw	2
  2296  00225C  600A               	cpfslt	___xxtofl@exp^0,c
  2297  00225E  EF33  F011         	goto	u1971
  2298  002262  EF35  F011         	goto	u1970
  2299  002266                     u1971:
  2300  002266  EF20  F011         	goto	l2277
  2301  00226A                     u1970:
  2302  00226A                     l847:
  2303  00226A  B00A               	btfsc	___xxtofl@exp^0,0,c
  2304  00226C  EF3A  F011         	goto	u1981
  2305  002270  EF3C  F011         	goto	u1980
  2306  002274                     u1981:
  2307  002274  EF3D  F011         	goto	l2285
  2308  002278                     u1980:
  2309  002278  9E0D               	bcf	(___xxtofl@arg+2)^0,7,c
  2310  00227A                     l2285:
  2311  00227A  90D8               	bcf	status,0,c
  2312  00227C  320A               	rrcf	___xxtofl@exp^0,f,c
  2313  00227E  C00A  F005         	movff	___xxtofl@exp,??___xxtofl
  2314  002282  6A06               	clrf	(??___xxtofl+1)^0,c
  2315  002284  6A07               	clrf	(??___xxtofl+2)^0,c
  2316  002286  6A08               	clrf	(??___xxtofl+3)^0,c
  2317  002288  C005  F008         	movff	??___xxtofl,??___xxtofl+3
  2318  00228C  6A07               	clrf	(??___xxtofl+2)^0,c
  2319  00228E  6A06               	clrf	(??___xxtofl+1)^0,c
  2320  002290  6A05               	clrf	??___xxtofl^0,c
  2321  002292  5005               	movf	??___xxtofl^0,w,c
  2322  002294  120B               	iorwf	___xxtofl@arg^0,f,c
  2323  002296  5006               	movf	(??___xxtofl+1)^0,w,c
  2324  002298  120C               	iorwf	(___xxtofl@arg+1)^0,f,c
  2325  00229A  5007               	movf	(??___xxtofl+2)^0,w,c
  2326  00229C  120D               	iorwf	(___xxtofl@arg+2)^0,f,c
  2327  00229E  5008               	movf	(??___xxtofl+3)^0,w,c
  2328  0022A0  120E               	iorwf	(___xxtofl@arg+3)^0,f,c
  2329  0022A2  5009               	movf	___xxtofl@sign^0,w,c
  2330  0022A4  B4D8               	btfsc	status,2,c
  2331  0022A6  EF57  F011         	goto	u1991
  2332  0022AA  EF59  F011         	goto	u1990
  2333  0022AE                     u1991:
  2334  0022AE  EF61  F011         	goto	l2295
  2335  0022B2                     u1990:
  2336  0022B2  BE04               	btfsc	(___xxtofl@val+3)^0,7,c
  2337  0022B4  EF60  F011         	goto	u2000
  2338  0022B8  EF5E  F011         	goto	u2001
  2339  0022BC                     u2001:
  2340  0022BC  EF61  F011         	goto	l2295
  2341  0022C0                     u2000:
  2342  0022C0  8E0E               	bsf	(___xxtofl@arg+3)^0,7,c
  2343  0022C2                     l2295:
  2344  0022C2  C00B  F001         	movff	___xxtofl@arg,?___xxtofl
  2345  0022C6  C00C  F002         	movff	___xxtofl@arg+1,?___xxtofl+1
  2346  0022CA  C00D  F003         	movff	___xxtofl@arg+2,?___xxtofl+2
  2347  0022CE  C00E  F004         	movff	___xxtofl@arg+3,?___xxtofl+3
  2348  0022D2                     l836:
  2349  0022D2  0012               	return		;funcret
  2350  0022D4                     __end_of___xxtofl:
  2351                           	opt callstack 0
  2352                           
  2353 ;; *************** function ___fltol *****************
  2354 ;; Defined at:
  2355 ;;		line 43 in file "C:\Program Files (x86)\Microchip\xc8\v2.10\pic\sources\c99\common\fltol.c"
  2356 ;; Parameters:    Size  Location     Type
  2357 ;;  f1              4   80[COMRAM] unsigned char 
  2358 ;; Auto vars:     Size  Location     Type
  2359 ;;  exp1            1   89[COMRAM] unsigned char 
  2360 ;;  sign1           1   88[COMRAM] unsigned char 
  2361 ;; Return value:  Size  Location     Type
  2362 ;;                  4   80[COMRAM] long 
  2363 ;; Registers used:
  2364 ;;		wreg, status,2, status,0
  2365 ;; Tracked objects:
  2366 ;;		On entry : 0/0
  2367 ;;		On exit  : 0/0
  2368 ;;		Unchanged: 0/0
  2369 ;; Data sizes:     COMRAM   BANK0   BANK1   BANK2   BANK3   BANK4   BANK5
  2370 ;;      Params:         4       0       0       0       0       0       0
  2371 ;;      Locals:         2       0       0       0       0       0       0
  2372 ;;      Temps:          4       0       0       0       0       0       0
  2373 ;;      Totals:        10       0       0       0       0       0       0
  2374 ;;Total ram usage:       10 bytes
  2375 ;; Hardware stack levels used:    1
  2376 ;; This function calls:
  2377 ;;		Nothing
  2378 ;; This function is called by:
  2379 ;;		_main
  2380 ;;		___rem_pio2f
  2381 ;; This function uses a non-reentrant model
  2382 ;;
  2383                           
  2384                           	psect	text6
  2385  0022D4                     __ptext6:
  2386                           	opt callstack 0
  2387  0022D4                     ___fltol:
  2388                           	opt callstack 28
  2389  0022D4  3453               	rlcf	(___fltol@f1+2)^0,w,c
  2390  0022D6  3454               	rlcf	(___fltol@f1+3)^0,w,c
  2391  0022D8  6E5A               	movwf	___fltol@exp1^0,c
  2392  0022DA  505A               	movf	___fltol@exp1^0,w,c
  2393  0022DC  A4D8               	btfss	status,2,c
  2394  0022DE  EF73  F011         	goto	u1841
  2395  0022E2  EF75  F011         	goto	u1840
  2396  0022E6                     u1841:
  2397  0022E6  EF7F  F011         	goto	l2215
  2398  0022EA                     u1840:
  2399  0022EA                     l2211:
  2400  0022EA  0E00               	movlw	0
  2401  0022EC  6E51               	movwf	?___fltol^0,c
  2402  0022EE  0E00               	movlw	0
  2403  0022F0  6E52               	movwf	(?___fltol+1)^0,c
  2404  0022F2  0E00               	movlw	0
  2405  0022F4  6E53               	movwf	(?___fltol+2)^0,c
  2406  0022F6  0E00               	movlw	0
  2407  0022F8  6E54               	movwf	(?___fltol+3)^0,c
  2408  0022FA  EFEC  F011         	goto	l475
  2409  0022FE                     l2215:
  2410  0022FE  C051  F055         	movff	___fltol@f1,??___fltol
  2411  002302  C052  F056         	movff	___fltol@f1+1,??___fltol+1
  2412  002306  C053  F057         	movff	___fltol@f1+2,??___fltol+2
  2413  00230A  C054  F058         	movff	___fltol@f1+3,??___fltol+3
  2414  00230E  0E20               	movlw	32
  2415  002310  EF8F  F011         	goto	u1850
  2416  002314                     u1855:
  2417  002314  90D8               	bcf	status,0,c
  2418  002316  3258               	rrcf	(??___fltol+3)^0,f,c
  2419  002318  3257               	rrcf	(??___fltol+2)^0,f,c
  2420  00231A  3256               	rrcf	(??___fltol+1)^0,f,c
  2421  00231C  3255               	rrcf	??___fltol^0,f,c
  2422  00231E                     u1850:
  2423  00231E  2EE8               	decfsz	wreg,f,c
  2424  002320  EF8A  F011         	goto	u1855
  2425  002324  5055               	movf	??___fltol^0,w,c
  2426  002326  6E59               	movwf	___fltol@sign1^0,c
  2427  002328  8E53               	bsf	(___fltol@f1+2)^0,7,c
  2428  00232A  0EFF               	movlw	255
  2429  00232C  1651               	andwf	___fltol@f1^0,f,c
  2430  00232E  0EFF               	movlw	255
  2431  002330  1652               	andwf	(___fltol@f1+1)^0,f,c
  2432  002332  0EFF               	movlw	255
  2433  002334  1653               	andwf	(___fltol@f1+2)^0,f,c
  2434  002336  0E00               	movlw	0
  2435  002338  1654               	andwf	(___fltol@f1+3)^0,f,c
  2436  00233A  0E96               	movlw	150
  2437  00233C  5E5A               	subwf	___fltol@exp1^0,f,c
  2438  00233E  BE5A               	btfsc	___fltol@exp1^0,7,c
  2439  002340  EFA6  F011         	goto	u1860
  2440  002344  EFA4  F011         	goto	u1861
  2441  002348                     u1861:
  2442  002348  EFBC  F011         	goto	l2235
  2443  00234C                     u1860:
  2444  00234C  505A               	movf	___fltol@exp1^0,w,c
  2445  00234E  0A80               	xorlw	128
  2446  002350  0F97               	addlw	151
  2447  002352  B0D8               	btfsc	status,0,c
  2448  002354  EFAE  F011         	goto	u1871
  2449  002358  EFB0  F011         	goto	u1870
  2450  00235C                     u1871:
  2451  00235C  EFB2  F011         	goto	l2231
  2452  002360                     u1870:
  2453  002360  EF75  F011         	goto	l2211
  2454  002364                     l2231:
  2455  002364  90D8               	bcf	status,0,c
  2456  002366  3254               	rrcf	(___fltol@f1+3)^0,f,c
  2457  002368  3253               	rrcf	(___fltol@f1+2)^0,f,c
  2458  00236A  3252               	rrcf	(___fltol@f1+1)^0,f,c
  2459  00236C  3251               	rrcf	___fltol@f1^0,f,c
  2460  00236E  3E5A               	incfsz	___fltol@exp1^0,f,c
  2461  002370  EFB2  F011         	goto	l2231
  2462  002374  EFD4  F011         	goto	l2245
  2463  002378                     l2235:
  2464  002378  0E1F               	movlw	31
  2465  00237A  645A               	cpfsgt	___fltol@exp1^0,c
  2466  00237C  EFC2  F011         	goto	u1881
  2467  002380  EFC4  F011         	goto	u1880
  2468  002384                     u1881:
  2469  002384  EFCC  F011         	goto	l2243
  2470  002388                     u1880:
  2471  002388  EF75  F011         	goto	l2211
  2472  00238C                     l2241:
  2473  00238C  90D8               	bcf	status,0,c
  2474  00238E  3651               	rlcf	___fltol@f1^0,f,c
  2475  002390  3652               	rlcf	(___fltol@f1+1)^0,f,c
  2476  002392  3653               	rlcf	(___fltol@f1+2)^0,f,c
  2477  002394  3654               	rlcf	(___fltol@f1+3)^0,f,c
  2478  002396  065A               	decf	___fltol@exp1^0,f,c
  2479  002398                     l2243:
  2480  002398  505A               	movf	___fltol@exp1^0,w,c
  2481  00239A  A4D8               	btfss	status,2,c
  2482  00239C  EFD2  F011         	goto	u1891
  2483  0023A0  EFD4  F011         	goto	u1890
  2484  0023A4                     u1891:
  2485  0023A4  EFC6  F011         	goto	l2241
  2486  0023A8                     u1890:
  2487  0023A8                     l2245:
  2488  0023A8  5059               	movf	___fltol@sign1^0,w,c
  2489  0023AA  B4D8               	btfsc	status,2,c
  2490  0023AC  EFDA  F011         	goto	u1901
  2491  0023B0  EFDC  F011         	goto	u1900
  2492  0023B4                     u1901:
  2493  0023B4  EFE4  F011         	goto	l2249
  2494  0023B8                     u1900:
  2495  0023B8  1E54               	comf	(___fltol@f1+3)^0,f,c
  2496  0023BA  1E53               	comf	(___fltol@f1+2)^0,f,c
  2497  0023BC  1E52               	comf	(___fltol@f1+1)^0,f,c
  2498  0023BE  6C51               	negf	___fltol@f1^0,c
  2499  0023C0  0E00               	movlw	0
  2500  0023C2  2252               	addwfc	(___fltol@f1+1)^0,f,c
  2501  0023C4  2253               	addwfc	(___fltol@f1+2)^0,f,c
  2502  0023C6  2254               	addwfc	(___fltol@f1+3)^0,f,c
  2503  0023C8                     l2249:
  2504  0023C8  C051  F051         	movff	___fltol@f1,?___fltol
  2505  0023CC  C052  F052         	movff	___fltol@f1+1,?___fltol+1
  2506  0023D0  C053  F053         	movff	___fltol@f1+2,?___fltol+2
  2507  0023D4  C054  F054         	movff	___fltol@f1+3,?___fltol+3
  2508  0023D8                     l475:
  2509  0023D8  0012               	return		;funcret
  2510  0023DA                     __end_of___fltol:
  2511                           	opt callstack 0
  2512                           
  2513 ;; *************** function ___flsub *****************
  2514 ;; Defined at:
  2515 ;;		line 245 in file "C:\Program Files (x86)\Microchip\xc8\v2.10\pic\sources\c99\common\sprcadd.c"
  2516 ;; Parameters:    Size  Location     Type
  2517 ;;  b               4   80[COMRAM] long 
  2518 ;;  a               4   84[COMRAM] long 
  2519 ;; Auto vars:     Size  Location     Type
  2520 ;;		None
  2521 ;; Return value:  Size  Location     Type
  2522 ;;                  4   80[COMRAM] long 
  2523 ;; Registers used:
  2524 ;;		wreg, status,2, status,0, cstack
  2525 ;; Tracked objects:
  2526 ;;		On entry : 0/0
  2527 ;;		On exit  : 0/0
  2528 ;;		Unchanged: 0/0
  2529 ;; Data sizes:     COMRAM   BANK0   BANK1   BANK2   BANK3   BANK4   BANK5
  2530 ;;      Params:         8       0       0       0       0       0       0
  2531 ;;      Locals:         0       0       0       0       0       0       0
  2532 ;;      Temps:          0       0       0       0       0       0       0
  2533 ;;      Totals:         8       0       0       0       0       0       0
  2534 ;;Total ram usage:        8 bytes
  2535 ;; Hardware stack levels used:    1
  2536 ;; Hardware stack levels required when called:    1
  2537 ;; This function calls:
  2538 ;;		___fladd
  2539 ;; This function is called by:
  2540 ;;		_cosf
  2541 ;;		___rem_pio2f
  2542 ;; This function uses a non-reentrant model
  2543 ;;
  2544                           
  2545                           	psect	text7
  2546  0024C4                     __ptext7:
  2547                           	opt callstack 0
  2548  0024C4                     ___flsub:
  2549                           	opt callstack 27
  2550  0024C4  0E00               	movlw	0
  2551  0024C6  1A55               	xorwf	___flsub@a^0,f,c
  2552  0024C8  0E00               	movlw	0
  2553  0024CA  1A56               	xorwf	(___flsub@a+1)^0,f,c
  2554  0024CC  0E00               	movlw	0
  2555  0024CE  1A57               	xorwf	(___flsub@a+2)^0,f,c
  2556  0024D0  0E80               	movlw	128
  2557  0024D2  1A58               	xorwf	(___flsub@a+3)^0,f,c
  2558  0024D4  C051  F041         	movff	___flsub@b,___fladd@b
  2559  0024D8  C052  F042         	movff	___flsub@b+1,___fladd@b+1
  2560  0024DC  C053  F043         	movff	___flsub@b+2,___fladd@b+2
  2561  0024E0  C054  F044         	movff	___flsub@b+3,___fladd@b+3
  2562  0024E4  C055  F045         	movff	___flsub@a,___fladd@a
  2563  0024E8  C056  F046         	movff	___flsub@a+1,___fladd@a+1
  2564  0024EC  C057  F047         	movff	___flsub@a+2,___fladd@a+2
  2565  0024F0  C058  F048         	movff	___flsub@a+3,___fladd@a+3
  2566  0024F4  ECEE  F005         	call	___fladd	;wreg free
  2567  0024F8  C041  F051         	movff	?___fladd,?___flsub
  2568  0024FC  C042  F052         	movff	?___fladd+1,?___flsub+1
  2569  002500  C043  F053         	movff	?___fladd+2,?___flsub+2
  2570  002504  C044  F054         	movff	?___fladd+3,?___flsub+3
  2571  002508  0012               	return		;funcret
  2572  00250A                     __end_of___flsub:
  2573                           	opt callstack 0
  2574                           
  2575 ;; *************** function ___flneg *****************
  2576 ;; Defined at:
  2577 ;;		line 15 in file "C:\Program Files (x86)\Microchip\xc8\v2.10\pic\sources\c99\common\flneg.c"
  2578 ;; Parameters:    Size  Location     Type
  2579 ;;  f1              4   24[BANK0 ] long 
  2580 ;; Auto vars:     Size  Location     Type
  2581 ;;		None
  2582 ;; Return value:  Size  Location     Type
  2583 ;;                  4   24[BANK0 ] long 
  2584 ;; Registers used:
  2585 ;;		wreg, status,2, status,0
  2586 ;; Tracked objects:
  2587 ;;		On entry : 0/0
  2588 ;;		On exit  : 0/0
  2589 ;;		Unchanged: 0/0
  2590 ;; Data sizes:     COMRAM   BANK0   BANK1   BANK2   BANK3   BANK4   BANK5
  2591 ;;      Params:         0       4       0       0       0       0       0
  2592 ;;      Locals:         0       0       0       0       0       0       0
  2593 ;;      Temps:          0       0       0       0       0       0       0
  2594 ;;      Totals:         0       4       0       0       0       0       0
  2595 ;;Total ram usage:        4 bytes
  2596 ;; Hardware stack levels used:    1
  2597 ;; This function calls:
  2598 ;;		Nothing
  2599 ;; This function is called by:
  2600 ;;		_cosf
  2601 ;;		___rem_pio2f
  2602 ;; This function uses a non-reentrant model
  2603 ;;
  2604                           
  2605                           	psect	text8
  2606  002588                     __ptext8:
  2607                           	opt callstack 0
  2608  002588                     ___flneg:
  2609                           	opt callstack 28
  2610  002588  0100               	movlb	0	; () banked
  2611  00258A  5178               	movf	___flneg@f1& (0+255),w,b
  2612  00258C  1179               	iorwf	(___flneg@f1+1)& (0+255),w,b
  2613  00258E  117A               	iorwf	(___flneg@f1+2)& (0+255),w,b
  2614  002590  117B               	iorwf	(___flneg@f1+3)& (0+255),w,b
  2615  002592  B4D8               	btfsc	status,2,c
  2616  002594  EFCE  F012         	goto	u1831
  2617  002598  EFD0  F012         	goto	u1830
  2618  00259C                     u1831:
  2619  00259C  EFD8  F012         	goto	l2205
  2620  0025A0                     u1830:
  2621  0025A0                     
  2622                           ; BSR set to: 0
  2623  0025A0  0E00               	movlw	0
  2624  0025A2  1B78               	xorwf	___flneg@f1& (0+255),f,b
  2625  0025A4  0E00               	movlw	0
  2626  0025A6  1B79               	xorwf	(___flneg@f1+1)& (0+255),f,b
  2627  0025A8  0E00               	movlw	0
  2628  0025AA  1B7A               	xorwf	(___flneg@f1+2)& (0+255),f,b
  2629  0025AC  0E80               	movlw	128
  2630  0025AE  1B7B               	xorwf	(___flneg@f1+3)& (0+255),f,b
  2631  0025B0                     l2205:
  2632                           
  2633                           ; BSR set to: 0
  2634  0025B0  C078  F078         	movff	___flneg@f1,?___flneg
  2635  0025B4  C079  F079         	movff	___flneg@f1+1,?___flneg+1
  2636  0025B8  C07A  F07A         	movff	___flneg@f1+2,?___flneg+2
  2637  0025BC  C07B  F07B         	movff	___flneg@f1+3,?___flneg+3
  2638  0025C0                     
  2639                           ; BSR set to: 0
  2640  0025C0  0012               	return		;funcret
  2641  0025C2                     __end_of___flneg:
  2642                           	opt callstack 0
  2643                           
  2644 ;; *************** function ___cosdf *****************
  2645 ;; Defined at:
  2646 ;;		line 26 in file "C:\Program Files (x86)\Microchip\xc8\v2.10\pic\sources\c99\common\__cosdf.c"
  2647 ;; Parameters:    Size  Location     Type
  2648 ;;  x               4   80[COMRAM] long 
  2649 ;; Auto vars:     Size  Location     Type
  2650 ;;  z               4   20[BANK0 ] long 
  2651 ;;  w               4   16[BANK0 ] long 
  2652 ;;  r               4    0[BANK0 ] long 
  2653 ;; Return value:  Size  Location     Type
  2654 ;;                  4   80[COMRAM] float 
  2655 ;; Registers used:
  2656 ;;		wreg, status,2, status,0, prodl, prodh, cstack
  2657 ;; Tracked objects:
  2658 ;;		On entry : 0/0
  2659 ;;		On exit  : 0/0
  2660 ;;		Unchanged: 0/0
  2661 ;; Data sizes:     COMRAM   BANK0   BANK1   BANK2   BANK3   BANK4   BANK5
  2662 ;;      Params:         4       0       0       0       0       0       0
  2663 ;;      Locals:         0      24       0       0       0       0       0
  2664 ;;      Temps:          0       0       0       0       0       0       0
  2665 ;;      Totals:         4      24       0       0       0       0       0
  2666 ;;Total ram usage:       28 bytes
  2667 ;; Hardware stack levels used:    1
  2668 ;; Hardware stack levels required when called:    1
  2669 ;; This function calls:
  2670 ;;		___fladd
  2671 ;;		___flmul
  2672 ;; This function is called by:
  2673 ;;		_cosf
  2674 ;; This function uses a non-reentrant model
  2675 ;;
  2676                           
  2677                           	psect	text9
  2678  001F22                     __ptext9:
  2679                           	opt callstack 0
  2680  001F22                     ___cosdf:
  2681                           	opt callstack 28
  2682  001F22  C051  F028         	movff	___cosdf@x,___flmul@b
  2683  001F26  C052  F029         	movff	___cosdf@x+1,___flmul@b+1
  2684  001F2A  C053  F02A         	movff	___cosdf@x+2,___flmul@b+2
  2685  001F2E  C054  F02B         	movff	___cosdf@x+3,___flmul@b+3
  2686  001F32  C051  F02C         	movff	___cosdf@x,___flmul@a
  2687  001F36  C052  F02D         	movff	___cosdf@x+1,___flmul@a+1
  2688  001F3A  C053  F02E         	movff	___cosdf@x+2,___flmul@a+2
  2689  001F3E  C054  F02F         	movff	___cosdf@x+3,___flmul@a+3
  2690  001F42  EC96  F00A         	call	___flmul	;wreg free
  2691  001F46  C028  F074         	movff	?___flmul,___cosdf@z
  2692  001F4A  C029  F075         	movff	?___flmul+1,___cosdf@z+1
  2693  001F4E  C02A  F076         	movff	?___flmul+2,___cosdf@z+2
  2694  001F52  C02B  F077         	movff	?___flmul+3,___cosdf@z+3
  2695  001F56  C074  F028         	movff	___cosdf@z,___flmul@b
  2696  001F5A  C075  F029         	movff	___cosdf@z+1,___flmul@b+1
  2697  001F5E  C076  F02A         	movff	___cosdf@z+2,___flmul@b+2
  2698  001F62  C077  F02B         	movff	___cosdf@z+3,___flmul@b+3
  2699  001F66  C074  F02C         	movff	___cosdf@z,___flmul@a
  2700  001F6A  C075  F02D         	movff	___cosdf@z+1,___flmul@a+1
  2701  001F6E  C076  F02E         	movff	___cosdf@z+2,___flmul@a+2
  2702  001F72  C077  F02F         	movff	___cosdf@z+3,___flmul@a+3
  2703  001F76  EC96  F00A         	call	___flmul	;wreg free
  2704  001F7A  C028  F070         	movff	?___flmul,___cosdf@w
  2705  001F7E  C029  F071         	movff	?___flmul+1,___cosdf@w+1
  2706  001F82  C02A  F072         	movff	?___flmul+2,___cosdf@w+2
  2707  001F86  C02B  F073         	movff	?___flmul+3,___cosdf@w+3
  2708  001F8A  0E17               	movlw	23
  2709  001F8C  6E2C               	movwf	___flmul@a^0,c
  2710  001F8E  0E9A               	movlw	154
  2711  001F90  6E2D               	movwf	(___flmul@a+1)^0,c
  2712  001F92  0ECC               	movlw	204
  2713  001F94  6E2E               	movwf	(___flmul@a+2)^0,c
  2714  001F96  0E37               	movlw	55
  2715  001F98  6E2F               	movwf	(___flmul@a+3)^0,c
  2716  001F9A  C074  F028         	movff	___cosdf@z,___flmul@b
  2717  001F9E  C075  F029         	movff	___cosdf@z+1,___flmul@b+1
  2718  001FA2  C076  F02A         	movff	___cosdf@z+2,___flmul@b+2
  2719  001FA6  C077  F02B         	movff	___cosdf@z+3,___flmul@b+3
  2720  001FAA  EC96  F00A         	call	___flmul	;wreg free
  2721  001FAE  C028  F041         	movff	?___flmul,___fladd@b
  2722  001FB2  C029  F042         	movff	?___flmul+1,___fladd@b+1
  2723  001FB6  C02A  F043         	movff	?___flmul+2,___fladd@b+2
  2724  001FBA  C02B  F044         	movff	?___flmul+3,___fladd@b+3
  2725  001FBE  0E3F               	movlw	63
  2726  001FC0  6E45               	movwf	___fladd@a^0,c
  2727  001FC2  0E04               	movlw	4
  2728  001FC4  6E46               	movwf	(___fladd@a+1)^0,c
  2729  001FC6  0EB6               	movlw	182
  2730  001FC8  6E47               	movwf	(___fladd@a+2)^0,c
  2731  001FCA  0EBA               	movlw	186
  2732  001FCC  6E48               	movwf	(___fladd@a+3)^0,c
  2733  001FCE  ECEE  F005         	call	___fladd	;wreg free
  2734  001FD2  C041  F060         	movff	?___fladd,___cosdf@r
  2735  001FD6  C042  F061         	movff	?___fladd+1,___cosdf@r+1
  2736  001FDA  C043  F062         	movff	?___fladd+2,___cosdf@r+2
  2737  001FDE  C044  F063         	movff	?___fladd+3,___cosdf@r+3
  2738  001FE2  0E00               	movlw	0
  2739  001FE4  6E45               	movwf	___fladd@a^0,c
  2740  001FE6  0E00               	movlw	0
  2741  001FE8  6E46               	movwf	(___fladd@a+1)^0,c
  2742  001FEA  0E80               	movlw	128
  2743  001FEC  6E47               	movwf	(___fladd@a+2)^0,c
  2744  001FEE  0E3F               	movlw	63
  2745  001FF0  6E48               	movwf	(___fladd@a+3)^0,c
  2746  001FF2  0E00               	movlw	0
  2747  001FF4  6E2C               	movwf	___flmul@a^0,c
  2748  001FF6  0E00               	movlw	0
  2749  001FF8  6E2D               	movwf	(___flmul@a+1)^0,c
  2750  001FFA  0E00               	movlw	0
  2751  001FFC  6E2E               	movwf	(___flmul@a+2)^0,c
  2752  001FFE  0EBF               	movlw	191
  2753  002000  6E2F               	movwf	(___flmul@a+3)^0,c
  2754  002002  C074  F028         	movff	___cosdf@z,___flmul@b
  2755  002006  C075  F029         	movff	___cosdf@z+1,___flmul@b+1
  2756  00200A  C076  F02A         	movff	___cosdf@z+2,___flmul@b+2
  2757  00200E  C077  F02B         	movff	___cosdf@z+3,___flmul@b+3
  2758  002012  EC96  F00A         	call	___flmul	;wreg free
  2759  002016  C028  F041         	movff	?___flmul,___fladd@b
  2760  00201A  C029  F042         	movff	?___flmul+1,___fladd@b+1
  2761  00201E  C02A  F043         	movff	?___flmul+2,___fladd@b+2
  2762  002022  C02B  F044         	movff	?___flmul+3,___fladd@b+3
  2763  002026  ECEE  F005         	call	___fladd	;wreg free
  2764  00202A  C041  F064         	movff	?___fladd,___cosdf$1162
  2765  00202E  C042  F065         	movff	?___fladd+1,___cosdf$1162+1
  2766  002032  C043  F066         	movff	?___fladd+2,___cosdf$1162+2
  2767  002036  C044  F067         	movff	?___fladd+3,___cosdf$1162+3
  2768  00203A  C074  F02C         	movff	___cosdf@z,___flmul@a
  2769  00203E  C075  F02D         	movff	___cosdf@z+1,___flmul@a+1
  2770  002042  C076  F02E         	movff	___cosdf@z+2,___flmul@a+2
  2771  002046  C077  F02F         	movff	___cosdf@z+3,___flmul@a+3
  2772  00204A  C070  F028         	movff	___cosdf@w,___flmul@b
  2773  00204E  C071  F029         	movff	___cosdf@w+1,___flmul@b+1
  2774  002052  C072  F02A         	movff	___cosdf@w+2,___flmul@b+2
  2775  002056  C073  F02B         	movff	___cosdf@w+3,___flmul@b+3
  2776  00205A  EC96  F00A         	call	___flmul	;wreg free
  2777  00205E  C028  F068         	movff	?___flmul,___cosdf$1163
  2778  002062  C029  F069         	movff	?___flmul+1,___cosdf$1163+1
  2779  002066  C02A  F06A         	movff	?___flmul+2,___cosdf$1163+2
  2780  00206A  C02B  F06B         	movff	?___flmul+3,___cosdf$1163+3
  2781  00206E  0E9F               	movlw	159
  2782  002070  6E2C               	movwf	___flmul@a^0,c
  2783  002072  0EAA               	movlw	170
  2784  002074  6E2D               	movwf	(___flmul@a+1)^0,c
  2785  002076  0E2A               	movlw	42
  2786  002078  6E2E               	movwf	(___flmul@a+2)^0,c
  2787  00207A  0E3D               	movlw	61
  2788  00207C  6E2F               	movwf	(___flmul@a+3)^0,c
  2789  00207E  C070  F028         	movff	___cosdf@w,___flmul@b
  2790  002082  C071  F029         	movff	___cosdf@w+1,___flmul@b+1
  2791  002086  C072  F02A         	movff	___cosdf@w+2,___flmul@b+2
  2792  00208A  C073  F02B         	movff	___cosdf@w+3,___flmul@b+3
  2793  00208E  EC96  F00A         	call	___flmul	;wreg free
  2794  002092  C028  F045         	movff	?___flmul,___fladd@a
  2795  002096  C029  F046         	movff	?___flmul+1,___fladd@a+1
  2796  00209A  C02A  F047         	movff	?___flmul+2,___fladd@a+2
  2797  00209E  C02B  F048         	movff	?___flmul+3,___fladd@a+3
  2798  0020A2  C064  F041         	movff	___cosdf$1162,___fladd@b
  2799  0020A6  C065  F042         	movff	___cosdf$1162+1,___fladd@b+1
  2800  0020AA  C066  F043         	movff	___cosdf$1162+2,___fladd@b+2
  2801  0020AE  C067  F044         	movff	___cosdf$1162+3,___fladd@b+3
  2802  0020B2  ECEE  F005         	call	___fladd	;wreg free
  2803  0020B6  C041  F06C         	movff	?___fladd,___cosdf$1164
  2804  0020BA  C042  F06D         	movff	?___fladd+1,___cosdf$1164+1
  2805  0020BE  C043  F06E         	movff	?___fladd+2,___cosdf$1164+2
  2806  0020C2  C044  F06F         	movff	?___fladd+3,___cosdf$1164+3
  2807  0020C6  C06C  F041         	movff	___cosdf$1164,___fladd@b
  2808  0020CA  C06D  F042         	movff	___cosdf$1164+1,___fladd@b+1
  2809  0020CE  C06E  F043         	movff	___cosdf$1164+2,___fladd@b+2
  2810  0020D2  C06F  F044         	movff	___cosdf$1164+3,___fladd@b+3
  2811  0020D6  C060  F02C         	movff	___cosdf@r,___flmul@a
  2812  0020DA  C061  F02D         	movff	___cosdf@r+1,___flmul@a+1
  2813  0020DE  C062  F02E         	movff	___cosdf@r+2,___flmul@a+2
  2814  0020E2  C063  F02F         	movff	___cosdf@r+3,___flmul@a+3
  2815  0020E6  C068  F028         	movff	___cosdf$1163,___flmul@b
  2816  0020EA  C069  F029         	movff	___cosdf$1163+1,___flmul@b+1
  2817  0020EE  C06A  F02A         	movff	___cosdf$1163+2,___flmul@b+2
  2818  0020F2  C06B  F02B         	movff	___cosdf$1163+3,___flmul@b+3
  2819  0020F6  EC96  F00A         	call	___flmul	;wreg free
  2820  0020FA  C028  F045         	movff	?___flmul,___fladd@a
  2821  0020FE  C029  F046         	movff	?___flmul+1,___fladd@a+1
  2822  002102  C02A  F047         	movff	?___flmul+2,___fladd@a+2
  2823  002106  C02B  F048         	movff	?___flmul+3,___fladd@a+3
  2824  00210A  ECEE  F005         	call	___fladd	;wreg free
  2825  00210E  C041  F051         	movff	?___fladd,?___cosdf
  2826  002112  C042  F052         	movff	?___fladd+1,?___cosdf+1
  2827  002116  C043  F053         	movff	?___fladd+2,?___cosdf+2
  2828  00211A  C044  F054         	movff	?___fladd+3,?___cosdf+3
  2829  00211E  0012               	return		;funcret
  2830  002120                     __end_of___cosdf:
  2831                           	opt callstack 0
  2832                           
  2833 ;; *************** function ___flmul *****************
  2834 ;; Defined at:
  2835 ;;		line 8 in file "C:\Program Files (x86)\Microchip\xc8\v2.10\pic\sources\c99\common\sprcmul.c"
  2836 ;; Parameters:    Size  Location     Type
  2837 ;;  b               4   39[COMRAM] float 
  2838 ;;  a               4   43[COMRAM] float 
  2839 ;; Auto vars:     Size  Location     Type
  2840 ;;  prod            4   58[COMRAM] struct .
  2841 ;;  grs             4   52[COMRAM] unsigned long 
  2842 ;;  temp            2   62[COMRAM] struct .
  2843 ;;  bexp            1   57[COMRAM] unsigned char 
  2844 ;;  aexp            1   56[COMRAM] unsigned char 
  2845 ;;  sign            1   51[COMRAM] unsigned char 
  2846 ;; Return value:  Size  Location     Type
  2847 ;;                  4   39[COMRAM] unsigned char 
  2848 ;; Registers used:
  2849 ;;		wreg, status,2, status,0, prodl, prodh
  2850 ;; Tracked objects:
  2851 ;;		On entry : 0/0
  2852 ;;		On exit  : 0/0
  2853 ;;		Unchanged: 0/0
  2854 ;; Data sizes:     COMRAM   BANK0   BANK1   BANK2   BANK3   BANK4   BANK5
  2855 ;;      Params:         8       0       0       0       0       0       0
  2856 ;;      Locals:        13       0       0       0       0       0       0
  2857 ;;      Temps:          4       0       0       0       0       0       0
  2858 ;;      Totals:        25       0       0       0       0       0       0
  2859 ;;Total ram usage:       25 bytes
  2860 ;; Hardware stack levels used:    1
  2861 ;; This function calls:
  2862 ;;		Nothing
  2863 ;; This function is called by:
  2864 ;;		_main
  2865 ;;		___cosdf
  2866 ;;		___rem_pio2f
  2867 ;;		___sindf
  2868 ;; This function uses a non-reentrant model
  2869 ;;
  2870                           
  2871                           	psect	text10
  2872  00152C                     __ptext10:
  2873                           	opt callstack 0
  2874  00152C                     ___flmul:
  2875                           	opt callstack 28
  2876  00152C  502B               	movf	(___flmul@b+3)^0,w,c
  2877  00152E  0B80               	andlw	128
  2878  001530  6E34               	movwf	___flmul@sign^0,c
  2879  001532  502B               	movf	(___flmul@b+3)^0,w,c
  2880  001534  242B               	addwf	(___flmul@b+3)^0,w,c
  2881  001536  6E3A               	movwf	___flmul@bexp^0,c
  2882  001538  AE2A               	btfss	(___flmul@b+2)^0,7,c
  2883  00153A  EFA1  F00A         	goto	u1641
  2884  00153E  EFA3  F00A         	goto	u1640
  2885  001542                     u1641:
  2886  001542  EFA4  F00A         	goto	l2071
  2887  001546                     u1640:
  2888  001546  803A               	bsf	___flmul@bexp^0,0,c
  2889  001548                     l2071:
  2890  001548  503A               	movf	___flmul@bexp^0,w,c
  2891  00154A  B4D8               	btfsc	status,2,c
  2892  00154C  EFAA  F00A         	goto	u1651
  2893  001550  EFAC  F00A         	goto	u1650
  2894  001554                     u1651:
  2895  001554  EFBF  F00A         	goto	l2079
  2896  001558                     u1650:
  2897  001558  283A               	incf	___flmul@bexp^0,w,c
  2898  00155A  A4D8               	btfss	status,2,c
  2899  00155C  EFB2  F00A         	goto	u1661
  2900  001560  EFB4  F00A         	goto	u1660
  2901  001564                     u1661:
  2902  001564  EFBC  F00A         	goto	l2077
  2903  001568                     u1660:
  2904  001568  0E00               	movlw	0
  2905  00156A  6E28               	movwf	___flmul@b^0,c
  2906  00156C  0E00               	movlw	0
  2907  00156E  6E29               	movwf	(___flmul@b+1)^0,c
  2908  001570  0E00               	movlw	0
  2909  001572  6E2A               	movwf	(___flmul@b+2)^0,c
  2910  001574  0E00               	movlw	0
  2911  001576  6E2B               	movwf	(___flmul@b+3)^0,c
  2912  001578                     l2077:
  2913  001578  8E2A               	bsf	(___flmul@b+2)^0,7,c
  2914  00157A  EFC7  F00A         	goto	l2081
  2915  00157E                     l2079:
  2916  00157E  0E00               	movlw	0
  2917  001580  6E28               	movwf	___flmul@b^0,c
  2918  001582  0E00               	movlw	0
  2919  001584  6E29               	movwf	(___flmul@b+1)^0,c
  2920  001586  0E00               	movlw	0
  2921  001588  6E2A               	movwf	(___flmul@b+2)^0,c
  2922  00158A  0E00               	movlw	0
  2923  00158C  6E2B               	movwf	(___flmul@b+3)^0,c
  2924  00158E                     l2081:
  2925  00158E  502F               	movf	(___flmul@a+3)^0,w,c
  2926  001590  0B80               	andlw	128
  2927  001592  1A34               	xorwf	___flmul@sign^0,f,c
  2928  001594  502F               	movf	(___flmul@a+3)^0,w,c
  2929  001596  242F               	addwf	(___flmul@a+3)^0,w,c
  2930  001598  6E39               	movwf	___flmul@aexp^0,c
  2931  00159A  AE2E               	btfss	(___flmul@a+2)^0,7,c
  2932  00159C  EFD2  F00A         	goto	u1671
  2933  0015A0  EFD4  F00A         	goto	u1670
  2934  0015A4                     u1671:
  2935  0015A4  EFD5  F00A         	goto	l2089
  2936  0015A8                     u1670:
  2937  0015A8  8039               	bsf	___flmul@aexp^0,0,c
  2938  0015AA                     l2089:
  2939  0015AA  5039               	movf	___flmul@aexp^0,w,c
  2940  0015AC  B4D8               	btfsc	status,2,c
  2941  0015AE  EFDB  F00A         	goto	u1681
  2942  0015B2  EFDD  F00A         	goto	u1680
  2943  0015B6                     u1681:
  2944  0015B6  EFF0  F00A         	goto	l2097
  2945  0015BA                     u1680:
  2946  0015BA  2839               	incf	___flmul@aexp^0,w,c
  2947  0015BC  A4D8               	btfss	status,2,c
  2948  0015BE  EFE3  F00A         	goto	u1691
  2949  0015C2  EFE5  F00A         	goto	u1690
  2950  0015C6                     u1691:
  2951  0015C6  EFED  F00A         	goto	l2095
  2952  0015CA                     u1690:
  2953  0015CA  0E00               	movlw	0
  2954  0015CC  6E2C               	movwf	___flmul@a^0,c
  2955  0015CE  0E00               	movlw	0
  2956  0015D0  6E2D               	movwf	(___flmul@a+1)^0,c
  2957  0015D2  0E00               	movlw	0
  2958  0015D4  6E2E               	movwf	(___flmul@a+2)^0,c
  2959  0015D6  0E00               	movlw	0
  2960  0015D8  6E2F               	movwf	(___flmul@a+3)^0,c
  2961  0015DA                     l2095:
  2962  0015DA  8E2E               	bsf	(___flmul@a+2)^0,7,c
  2963  0015DC  EFF8  F00A         	goto	l792
  2964  0015E0                     l2097:
  2965  0015E0  0E00               	movlw	0
  2966  0015E2  6E2C               	movwf	___flmul@a^0,c
  2967  0015E4  0E00               	movlw	0
  2968  0015E6  6E2D               	movwf	(___flmul@a+1)^0,c
  2969  0015E8  0E00               	movlw	0
  2970  0015EA  6E2E               	movwf	(___flmul@a+2)^0,c
  2971  0015EC  0E00               	movlw	0
  2972  0015EE  6E2F               	movwf	(___flmul@a+3)^0,c
  2973  0015F0                     l792:
  2974  0015F0  5039               	movf	___flmul@aexp^0,w,c
  2975  0015F2  B4D8               	btfsc	status,2,c
  2976  0015F4  EFFE  F00A         	goto	u1701
  2977  0015F8  EF00  F00B         	goto	u1700
  2978  0015FC                     u1701:
  2979  0015FC  EF08  F00B         	goto	l2101
  2980  001600                     u1700:
  2981  001600  503A               	movf	___flmul@bexp^0,w,c
  2982  001602  A4D8               	btfss	status,2,c
  2983  001604  EF06  F00B         	goto	u1711
  2984  001608  EF08  F00B         	goto	u1710
  2985  00160C                     u1711:
  2986  00160C  EF12  F00B         	goto	l2105
  2987  001610                     u1710:
  2988  001610                     l2101:
  2989  001610  0E00               	movlw	0
  2990  001612  6E28               	movwf	?___flmul^0,c
  2991  001614  0E00               	movlw	0
  2992  001616  6E29               	movwf	(?___flmul+1)^0,c
  2993  001618  0E00               	movlw	0
  2994  00161A  6E2A               	movwf	(?___flmul+2)^0,c
  2995  00161C  0E00               	movlw	0
  2996  00161E  6E2B               	movwf	(?___flmul+3)^0,c
  2997  001620  EFAA  F00C         	goto	l796
  2998  001624                     l2105:
  2999  001624  502E               	movf	(___flmul@a+2)^0,w,c
  3000  001626  0228               	mulwf	___flmul@b^0,c
  3001  001628  CFF3 F03F          	movff	prodl,___flmul@temp
  3002  00162C  CFF4 F040          	movff	prodh,___flmul@temp+1
  3003  001630  503F               	movf	___flmul@temp^0,w,c
  3004  001632  6E35               	movwf	___flmul@grs^0,c
  3005  001634  6A36               	clrf	(___flmul@grs+1)^0,c
  3006  001636  6A37               	clrf	(___flmul@grs+2)^0,c
  3007  001638  6A38               	clrf	(___flmul@grs+3)^0,c
  3008  00163A  5040               	movf	(___flmul@temp+1)^0,w,c
  3009  00163C  6E3B               	movwf	___flmul@prod^0,c
  3010  00163E  6A3C               	clrf	(___flmul@prod+1)^0,c
  3011  001640  6A3D               	clrf	(___flmul@prod+2)^0,c
  3012  001642  6A3E               	clrf	(___flmul@prod+3)^0,c
  3013  001644  502D               	movf	(___flmul@a+1)^0,w,c
  3014  001646  0229               	mulwf	(___flmul@b+1)^0,c
  3015  001648  CFF3 F03F          	movff	prodl,___flmul@temp
  3016  00164C  CFF4 F040          	movff	prodh,___flmul@temp+1
  3017  001650  503F               	movf	___flmul@temp^0,w,c
  3018  001652  2635               	addwf	___flmul@grs^0,f,c
  3019  001654  0E00               	movlw	0
  3020  001656  2236               	addwfc	(___flmul@grs+1)^0,f,c
  3021  001658  2237               	addwfc	(___flmul@grs+2)^0,f,c
  3022  00165A  2238               	addwfc	(___flmul@grs+3)^0,f,c
  3023  00165C  5040               	movf	(___flmul@temp+1)^0,w,c
  3024  00165E  263B               	addwf	___flmul@prod^0,f,c
  3025  001660  0E00               	movlw	0
  3026  001662  223C               	addwfc	(___flmul@prod+1)^0,f,c
  3027  001664  223D               	addwfc	(___flmul@prod+2)^0,f,c
  3028  001666  223E               	addwfc	(___flmul@prod+3)^0,f,c
  3029  001668  502C               	movf	___flmul@a^0,w,c
  3030  00166A  022A               	mulwf	(___flmul@b+2)^0,c
  3031  00166C  CFF3 F03F          	movff	prodl,___flmul@temp
  3032  001670  CFF4 F040          	movff	prodh,___flmul@temp+1
  3033  001674  503F               	movf	___flmul@temp^0,w,c
  3034  001676  2635               	addwf	___flmul@grs^0,f,c
  3035  001678  0E00               	movlw	0
  3036  00167A  2236               	addwfc	(___flmul@grs+1)^0,f,c
  3037  00167C  2237               	addwfc	(___flmul@grs+2)^0,f,c
  3038  00167E  2238               	addwfc	(___flmul@grs+3)^0,f,c
  3039  001680  5040               	movf	(___flmul@temp+1)^0,w,c
  3040  001682  263B               	addwf	___flmul@prod^0,f,c
  3041  001684  0E00               	movlw	0
  3042  001686  223C               	addwfc	(___flmul@prod+1)^0,f,c
  3043  001688  223D               	addwfc	(___flmul@prod+2)^0,f,c
  3044  00168A  223E               	addwfc	(___flmul@prod+3)^0,f,c
  3045  00168C  C037  F038         	movff	___flmul@grs+2,___flmul@grs+3
  3046  001690  C036  F037         	movff	___flmul@grs+1,___flmul@grs+2
  3047  001694  C035  F036         	movff	___flmul@grs,___flmul@grs+1
  3048  001698  6A35               	clrf	___flmul@grs^0,c
  3049  00169A  502C               	movf	___flmul@a^0,w,c
  3050  00169C  0229               	mulwf	(___flmul@b+1)^0,c
  3051  00169E  CFF3 F03F          	movff	prodl,___flmul@temp
  3052  0016A2  CFF4 F040          	movff	prodh,___flmul@temp+1
  3053  0016A6  503F               	movf	___flmul@temp^0,w,c
  3054  0016A8  2635               	addwf	___flmul@grs^0,f,c
  3055  0016AA  5040               	movf	(___flmul@temp+1)^0,w,c
  3056  0016AC  2236               	addwfc	(___flmul@grs+1)^0,f,c
  3057  0016AE  0E00               	movlw	0
  3058  0016B0  2237               	addwfc	(___flmul@grs+2)^0,f,c
  3059  0016B2  0E00               	movlw	0
  3060  0016B4  2238               	addwfc	(___flmul@grs+3)^0,f,c
  3061  0016B6  502D               	movf	(___flmul@a+1)^0,w,c
  3062  0016B8  0228               	mulwf	___flmul@b^0,c
  3063  0016BA  CFF3 F03F          	movff	prodl,___flmul@temp
  3064  0016BE  CFF4 F040          	movff	prodh,___flmul@temp+1
  3065  0016C2  503F               	movf	___flmul@temp^0,w,c
  3066  0016C4  2635               	addwf	___flmul@grs^0,f,c
  3067  0016C6  5040               	movf	(___flmul@temp+1)^0,w,c
  3068  0016C8  2236               	addwfc	(___flmul@grs+1)^0,f,c
  3069  0016CA  0E00               	movlw	0
  3070  0016CC  2237               	addwfc	(___flmul@grs+2)^0,f,c
  3071  0016CE  0E00               	movlw	0
  3072  0016D0  2238               	addwfc	(___flmul@grs+3)^0,f,c
  3073  0016D2  C037  F038         	movff	___flmul@grs+2,___flmul@grs+3
  3074  0016D6  C036  F037         	movff	___flmul@grs+1,___flmul@grs+2
  3075  0016DA  C035  F036         	movff	___flmul@grs,___flmul@grs+1
  3076  0016DE  6A35               	clrf	___flmul@grs^0,c
  3077  0016E0  502C               	movf	___flmul@a^0,w,c
  3078  0016E2  0228               	mulwf	___flmul@b^0,c
  3079  0016E4  CFF3 F03F          	movff	prodl,___flmul@temp
  3080  0016E8  CFF4 F040          	movff	prodh,___flmul@temp+1
  3081  0016EC  503F               	movf	___flmul@temp^0,w,c
  3082  0016EE  2635               	addwf	___flmul@grs^0,f,c
  3083  0016F0  5040               	movf	(___flmul@temp+1)^0,w,c
  3084  0016F2  2236               	addwfc	(___flmul@grs+1)^0,f,c
  3085  0016F4  0E00               	movlw	0
  3086  0016F6  2237               	addwfc	(___flmul@grs+2)^0,f,c
  3087  0016F8  0E00               	movlw	0
  3088  0016FA  2238               	addwfc	(___flmul@grs+3)^0,f,c
  3089  0016FC  502E               	movf	(___flmul@a+2)^0,w,c
  3090  0016FE  0229               	mulwf	(___flmul@b+1)^0,c
  3091  001700  CFF3 F03F          	movff	prodl,___flmul@temp
  3092  001704  CFF4 F040          	movff	prodh,___flmul@temp+1
  3093  001708  503F               	movf	___flmul@temp^0,w,c
  3094  00170A  263B               	addwf	___flmul@prod^0,f,c
  3095  00170C  5040               	movf	(___flmul@temp+1)^0,w,c
  3096  00170E  223C               	addwfc	(___flmul@prod+1)^0,f,c
  3097  001710  0E00               	movlw	0
  3098  001712  223D               	addwfc	(___flmul@prod+2)^0,f,c
  3099  001714  0E00               	movlw	0
  3100  001716  223E               	addwfc	(___flmul@prod+3)^0,f,c
  3101  001718  502D               	movf	(___flmul@a+1)^0,w,c
  3102  00171A  022A               	mulwf	(___flmul@b+2)^0,c
  3103  00171C  CFF3 F03F          	movff	prodl,___flmul@temp
  3104  001720  CFF4 F040          	movff	prodh,___flmul@temp+1
  3105  001724  503F               	movf	___flmul@temp^0,w,c
  3106  001726  263B               	addwf	___flmul@prod^0,f,c
  3107  001728  5040               	movf	(___flmul@temp+1)^0,w,c
  3108  00172A  223C               	addwfc	(___flmul@prod+1)^0,f,c
  3109  00172C  0E00               	movlw	0
  3110  00172E  223D               	addwfc	(___flmul@prod+2)^0,f,c
  3111  001730  0E00               	movlw	0
  3112  001732  223E               	addwfc	(___flmul@prod+3)^0,f,c
  3113  001734  502E               	movf	(___flmul@a+2)^0,w,c
  3114  001736  022A               	mulwf	(___flmul@b+2)^0,c
  3115  001738  CFF3 F03F          	movff	prodl,___flmul@temp
  3116  00173C  CFF4 F040          	movff	prodh,___flmul@temp+1
  3117  001740  503F               	movf	___flmul@temp^0,w,c
  3118  001742  6E30               	movwf	??___flmul^0,c
  3119  001744  5040               	movf	(___flmul@temp+1)^0,w,c
  3120  001746  6E31               	movwf	(??___flmul+1)^0,c
  3121  001748  6A32               	clrf	(??___flmul+2)^0,c
  3122  00174A  6A33               	clrf	(??___flmul+3)^0,c
  3123  00174C  C032  F033         	movff	??___flmul+2,??___flmul+3
  3124  001750  C031  F032         	movff	??___flmul+1,??___flmul+2
  3125  001754  C030  F031         	movff	??___flmul,??___flmul+1
  3126  001758  6A30               	clrf	??___flmul^0,c
  3127  00175A  5030               	movf	??___flmul^0,w,c
  3128  00175C  263B               	addwf	___flmul@prod^0,f,c
  3129  00175E  5031               	movf	(??___flmul+1)^0,w,c
  3130  001760  223C               	addwfc	(___flmul@prod+1)^0,f,c
  3131  001762  5032               	movf	(??___flmul+2)^0,w,c
  3132  001764  223D               	addwfc	(___flmul@prod+2)^0,f,c
  3133  001766  5033               	movf	(??___flmul+3)^0,w,c
  3134  001768  223E               	addwfc	(___flmul@prod+3)^0,f,c
  3135  00176A  C035  F030         	movff	___flmul@grs,??___flmul
  3136  00176E  C036  F031         	movff	___flmul@grs+1,??___flmul+1
  3137  001772  C037  F032         	movff	___flmul@grs+2,??___flmul+2
  3138  001776  C038  F033         	movff	___flmul@grs+3,??___flmul+3
  3139  00177A  0E19               	movlw	25
  3140  00177C  EFC5  F00B         	goto	u1720
  3141  001780                     u1725:
  3142  001780  90D8               	bcf	status,0,c
  3143  001782  3233               	rrcf	(??___flmul+3)^0,f,c
  3144  001784  3232               	rrcf	(??___flmul+2)^0,f,c
  3145  001786  3231               	rrcf	(??___flmul+1)^0,f,c
  3146  001788  3230               	rrcf	??___flmul^0,f,c
  3147  00178A                     u1720:
  3148  00178A  2EE8               	decfsz	wreg,f,c
  3149  00178C  EFC0  F00B         	goto	u1725
  3150  001790  5030               	movf	??___flmul^0,w,c
  3151  001792  263B               	addwf	___flmul@prod^0,f,c
  3152  001794  5031               	movf	(??___flmul+1)^0,w,c
  3153  001796  223C               	addwfc	(___flmul@prod+1)^0,f,c
  3154  001798  5032               	movf	(??___flmul+2)^0,w,c
  3155  00179A  223D               	addwfc	(___flmul@prod+2)^0,f,c
  3156  00179C  5033               	movf	(??___flmul+3)^0,w,c
  3157  00179E  223E               	addwfc	(___flmul@prod+3)^0,f,c
  3158  0017A0  C037  F038         	movff	___flmul@grs+2,___flmul@grs+3
  3159  0017A4  C036  F037         	movff	___flmul@grs+1,___flmul@grs+2
  3160  0017A8  C035  F036         	movff	___flmul@grs,___flmul@grs+1
  3161  0017AC  6A35               	clrf	___flmul@grs^0,c
  3162  0017AE  5039               	movf	___flmul@aexp^0,w,c
  3163  0017B0  C03A  F030         	movff	___flmul@bexp,??___flmul
  3164  0017B4  6A31               	clrf	(??___flmul+1)^0,c
  3165  0017B6  2630               	addwf	??___flmul^0,f,c
  3166  0017B8  0E00               	movlw	0
  3167  0017BA  2231               	addwfc	(??___flmul+1)^0,f,c
  3168  0017BC  0E82               	movlw	130
  3169  0017BE  2430               	addwf	??___flmul^0,w,c
  3170  0017C0  6E3F               	movwf	___flmul@temp^0,c
  3171  0017C2  0EFF               	movlw	255
  3172  0017C4  2031               	addwfc	(??___flmul+1)^0,w,c
  3173  0017C6  6E40               	movwf	(___flmul@temp+1)^0,c
  3174  0017C8  EFFB  F00B         	goto	l2153
  3175  0017CC                     l2147:
  3176  0017CC  90D8               	bcf	status,0,c
  3177  0017CE  363B               	rlcf	___flmul@prod^0,f,c
  3178  0017D0  363C               	rlcf	(___flmul@prod+1)^0,f,c
  3179  0017D2  363D               	rlcf	(___flmul@prod+2)^0,f,c
  3180  0017D4  363E               	rlcf	(___flmul@prod+3)^0,f,c
  3181  0017D6  AE38               	btfss	(___flmul@grs+3)^0,7,c
  3182  0017D8  EFF0  F00B         	goto	u1731
  3183  0017DC  EFF2  F00B         	goto	u1730
  3184  0017E0                     u1731:
  3185  0017E0  EFF3  F00B         	goto	l799
  3186  0017E4                     u1730:
  3187  0017E4  803B               	bsf	___flmul@prod^0,0,c
  3188  0017E6                     l799:
  3189  0017E6  90D8               	bcf	status,0,c
  3190  0017E8  3635               	rlcf	___flmul@grs^0,f,c
  3191  0017EA  3636               	rlcf	(___flmul@grs+1)^0,f,c
  3192  0017EC  3637               	rlcf	(___flmul@grs+2)^0,f,c
  3193  0017EE  3638               	rlcf	(___flmul@grs+3)^0,f,c
  3194  0017F0  063F               	decf	___flmul@temp^0,f,c
  3195  0017F2  A0D8               	btfss	status,0,c
  3196  0017F4  0640               	decf	(___flmul@temp+1)^0,f,c
  3197  0017F6                     l2153:
  3198  0017F6  AE3D               	btfss	(___flmul@prod+2)^0,7,c
  3199  0017F8  EF00  F00C         	goto	u1741
  3200  0017FC  EF02  F00C         	goto	u1740
  3201  001800                     u1741:
  3202  001800  EFE6  F00B         	goto	l2147
  3203  001804                     u1740:
  3204  001804  0E00               	movlw	0
  3205  001806  6E39               	movwf	___flmul@aexp^0,c
  3206  001808  AE38               	btfss	(___flmul@grs+3)^0,7,c
  3207  00180A  EF09  F00C         	goto	u1751
  3208  00180E  EF0B  F00C         	goto	u1750
  3209  001812                     u1751:
  3210  001812  EF2F  F00C         	goto	l801
  3211  001816                     u1750:
  3212  001816  0EFF               	movlw	255
  3213  001818  1435               	andwf	___flmul@grs^0,w,c
  3214  00181A  6E30               	movwf	??___flmul^0,c
  3215  00181C  0EFF               	movlw	255
  3216  00181E  1436               	andwf	(___flmul@grs+1)^0,w,c
  3217  001820  6E31               	movwf	(??___flmul+1)^0,c
  3218  001822  0EFF               	movlw	255
  3219  001824  1437               	andwf	(___flmul@grs+2)^0,w,c
  3220  001826  6E32               	movwf	(??___flmul+2)^0,c
  3221  001828  0E7F               	movlw	127
  3222  00182A  1438               	andwf	(___flmul@grs+3)^0,w,c
  3223  00182C  6E33               	movwf	(??___flmul+3)^0,c
  3224  00182E  5030               	movf	??___flmul^0,w,c
  3225  001830  1031               	iorwf	(??___flmul+1)^0,w,c
  3226  001832  1032               	iorwf	(??___flmul+2)^0,w,c
  3227  001834  1033               	iorwf	(??___flmul+3)^0,w,c
  3228  001836  B4D8               	btfsc	status,2,c
  3229  001838  EF20  F00C         	goto	u1761
  3230  00183C  EF22  F00C         	goto	u1760
  3231  001840                     u1761:
  3232  001840  EF26  F00C         	goto	l802
  3233  001844                     u1760:
  3234  001844                     l2161:
  3235  001844  0E01               	movlw	1
  3236  001846  6E39               	movwf	___flmul@aexp^0,c
  3237  001848  EF2F  F00C         	goto	l801
  3238  00184C                     l802:
  3239  00184C  A03B               	btfss	___flmul@prod^0,0,c
  3240  00184E  EF2B  F00C         	goto	u1771
  3241  001852  EF2D  F00C         	goto	u1770
  3242  001856                     u1771:
  3243  001856  EF2F  F00C         	goto	l801
  3244  00185A                     u1770:
  3245  00185A  EF22  F00C         	goto	l2161
  3246  00185E                     l801:
  3247  00185E  5039               	movf	___flmul@aexp^0,w,c
  3248  001860  B4D8               	btfsc	status,2,c
  3249  001862  EF35  F00C         	goto	u1781
  3250  001866  EF37  F00C         	goto	u1780
  3251  00186A                     u1781:
  3252  00186A  EF5B  F00C         	goto	l2173
  3253  00186E                     u1780:
  3254  00186E  0E01               	movlw	1
  3255  001870  263B               	addwf	___flmul@prod^0,f,c
  3256  001872  0E00               	movlw	0
  3257  001874  223C               	addwfc	(___flmul@prod+1)^0,f,c
  3258  001876  223D               	addwfc	(___flmul@prod+2)^0,f,c
  3259  001878  223E               	addwfc	(___flmul@prod+3)^0,f,c
  3260  00187A  A03E               	btfss	(___flmul@prod+3)^0,0,c
  3261  00187C  EF42  F00C         	goto	u1791
  3262  001880  EF44  F00C         	goto	u1790
  3263  001884                     u1791:
  3264  001884  EF5B  F00C         	goto	l2173
  3265  001888                     u1790:
  3266  001888  C03B  F030         	movff	___flmul@prod,??___flmul
  3267  00188C  C03C  F031         	movff	___flmul@prod+1,??___flmul+1
  3268  001890  C03D  F032         	movff	___flmul@prod+2,??___flmul+2
  3269  001894  C03E  F033         	movff	___flmul@prod+3,??___flmul+3
  3270  001898  3433               	rlcf	(??___flmul+3)^0,w,c
  3271  00189A  3233               	rrcf	(??___flmul+3)^0,f,c
  3272  00189C  3232               	rrcf	(??___flmul+2)^0,f,c
  3273  00189E  3231               	rrcf	(??___flmul+1)^0,f,c
  3274  0018A0  3230               	rrcf	??___flmul^0,f,c
  3275  0018A2  C030  F03B         	movff	??___flmul,___flmul@prod
  3276  0018A6  C031  F03C         	movff	??___flmul+1,___flmul@prod+1
  3277  0018AA  C032  F03D         	movff	??___flmul+2,___flmul@prod+2
  3278  0018AE  C033  F03E         	movff	??___flmul+3,___flmul@prod+3
  3279  0018B2  4A3F               	infsnz	___flmul@temp^0,f,c
  3280  0018B4  2A40               	incf	(___flmul@temp+1)^0,f,c
  3281  0018B6                     l2173:
  3282  0018B6  BE40               	btfsc	(___flmul@temp+1)^0,7,c
  3283  0018B8  EF66  F00C         	goto	u1801
  3284  0018BC  5040               	movf	(___flmul@temp+1)^0,w,c
  3285  0018BE  E108               	bnz	u1800
  3286  0018C0  283F               	incf	___flmul@temp^0,w,c
  3287  0018C2  A0D8               	btfss	status,0,c
  3288  0018C4  EF66  F00C         	goto	u1801
  3289  0018C8  EF68  F00C         	goto	u1800
  3290  0018CC                     u1801:
  3291  0018CC  EF72  F00C         	goto	l2177
  3292  0018D0                     u1800:
  3293  0018D0  0E00               	movlw	0
  3294  0018D2  6E3B               	movwf	___flmul@prod^0,c
  3295  0018D4  0E00               	movlw	0
  3296  0018D6  6E3C               	movwf	(___flmul@prod+1)^0,c
  3297  0018D8  0E80               	movlw	128
  3298  0018DA  6E3D               	movwf	(___flmul@prod+2)^0,c
  3299  0018DC  0E7F               	movlw	127
  3300  0018DE  6E3E               	movwf	(___flmul@prod+3)^0,c
  3301  0018E0  EFA0  F00C         	goto	l2189
  3302  0018E4                     l2177:
  3303  0018E4  BE40               	btfsc	(___flmul@temp+1)^0,7,c
  3304  0018E6  EF7F  F00C         	goto	u1810
  3305  0018EA  5040               	movf	(___flmul@temp+1)^0,w,c
  3306  0018EC  E106               	bnz	u1811
  3307  0018EE  043F               	decf	___flmul@temp^0,w,c
  3308  0018F0  B0D8               	btfsc	status,0,c
  3309  0018F2  EF7D  F00C         	goto	u1811
  3310  0018F6  EF7F  F00C         	goto	u1810
  3311  0018FA                     u1811:
  3312  0018FA  EF8B  F00C         	goto	l809
  3313  0018FE                     u1810:
  3314  0018FE  0E00               	movlw	0
  3315  001900  6E3B               	movwf	___flmul@prod^0,c
  3316  001902  0E00               	movlw	0
  3317  001904  6E3C               	movwf	(___flmul@prod+1)^0,c
  3318  001906  0E00               	movlw	0
  3319  001908  6E3D               	movwf	(___flmul@prod+2)^0,c
  3320  00190A  0E00               	movlw	0
  3321  00190C  6E3E               	movwf	(___flmul@prod+3)^0,c
  3322  00190E  0E00               	movlw	0
  3323  001910  6E34               	movwf	___flmul@sign^0,c
  3324  001912  EFA0  F00C         	goto	l2189
  3325  001916                     l809:
  3326  001916  C03F  F03A         	movff	___flmul@temp,___flmul@bexp
  3327  00191A  0EFF               	movlw	255
  3328  00191C  163B               	andwf	___flmul@prod^0,f,c
  3329  00191E  0EFF               	movlw	255
  3330  001920  163C               	andwf	(___flmul@prod+1)^0,f,c
  3331  001922  0E7F               	movlw	127
  3332  001924  163D               	andwf	(___flmul@prod+2)^0,f,c
  3333  001926  0E00               	movlw	0
  3334  001928  163E               	andwf	(___flmul@prod+3)^0,f,c
  3335  00192A  A03A               	btfss	___flmul@bexp^0,0,c
  3336  00192C  EF9A  F00C         	goto	u1821
  3337  001930  EF9C  F00C         	goto	u1820
  3338  001934                     u1821:
  3339  001934  EF9D  F00C         	goto	l2187
  3340  001938                     u1820:
  3341  001938  8E3D               	bsf	(___flmul@prod+2)^0,7,c
  3342  00193A                     l2187:
  3343  00193A  90D8               	bcf	status,0,c
  3344  00193C  303A               	rrcf	___flmul@bexp^0,w,c
  3345  00193E  6E3E               	movwf	(___flmul@prod+3)^0,c
  3346  001940                     l2189:
  3347  001940  5034               	movf	___flmul@sign^0,w,c
  3348  001942  123E               	iorwf	(___flmul@prod+3)^0,f,c
  3349  001944  C03B  F028         	movff	___flmul@prod,?___flmul
  3350  001948  C03C  F029         	movff	___flmul@prod+1,?___flmul+1
  3351  00194C  C03D  F02A         	movff	___flmul@prod+2,?___flmul+2
  3352  001950  C03E  F02B         	movff	___flmul@prod+3,?___flmul+3
  3353  001954                     l796:
  3354  001954  0012               	return		;funcret
  3355  001956                     __end_of___flmul:
  3356                           	opt callstack 0
  3357                           
  3358 ;; *************** function ___fladd *****************
  3359 ;; Defined at:
  3360 ;;		line 10 in file "C:\Program Files (x86)\Microchip\xc8\v2.10\pic\sources\c99\common\sprcadd.c"
  3361 ;; Parameters:    Size  Location     Type
  3362 ;;  b               4   64[COMRAM] unsigned char 
  3363 ;;  a               4   68[COMRAM] unsigned char 
  3364 ;; Auto vars:     Size  Location     Type
  3365 ;;  grs             1   79[COMRAM] unsigned char 
  3366 ;;  bexp            1   78[COMRAM] unsigned char 
  3367 ;;  aexp            1   77[COMRAM] unsigned char 
  3368 ;;  signs           1   76[COMRAM] unsigned char 
  3369 ;; Return value:  Size  Location     Type
  3370 ;;                  4   64[COMRAM] unsigned char 
  3371 ;; Registers used:
  3372 ;;		wreg, status,2, status,0
  3373 ;; Tracked objects:
  3374 ;;		On entry : 0/0
  3375 ;;		On exit  : 0/0
  3376 ;;		Unchanged: 0/0
  3377 ;; Data sizes:     COMRAM   BANK0   BANK1   BANK2   BANK3   BANK4   BANK5
  3378 ;;      Params:         8       0       0       0       0       0       0
  3379 ;;      Locals:         4       0       0       0       0       0       0
  3380 ;;      Temps:          4       0       0       0       0       0       0
  3381 ;;      Totals:        16       0       0       0       0       0       0
  3382 ;;Total ram usage:       16 bytes
  3383 ;; Hardware stack levels used:    1
  3384 ;; This function calls:
  3385 ;;		Nothing
  3386 ;; This function is called by:
  3387 ;;		___flsub
  3388 ;;		_cosf
  3389 ;;		___cosdf
  3390 ;;		___rem_pio2f
  3391 ;;		___sindf
  3392 ;; This function uses a non-reentrant model
  3393 ;;
  3394                           
  3395                           	psect	text11
  3396  000BDC                     __ptext11:
  3397                           	opt callstack 0
  3398  000BDC                     ___fladd:
  3399                           	opt callstack 28
  3400  000BDC  5044               	movf	(___fladd@b+3)^0,w,c
  3401  000BDE  0B80               	andlw	128
  3402  000BE0  6E4D               	movwf	___fladd@signs^0,c
  3403  000BE2  5044               	movf	(___fladd@b+3)^0,w,c
  3404  000BE4  2444               	addwf	(___fladd@b+3)^0,w,c
  3405  000BE6  6E4F               	movwf	___fladd@bexp^0,c
  3406  000BE8  AE43               	btfss	(___fladd@b+2)^0,7,c
  3407  000BEA  EFF9  F005         	goto	u1251
  3408  000BEE  EFFB  F005         	goto	u1250
  3409  000BF2                     u1251:
  3410  000BF2  EFFC  F005         	goto	l1863
  3411  000BF6                     u1250:
  3412  000BF6  804F               	bsf	___fladd@bexp^0,0,c
  3413  000BF8                     l1863:
  3414  000BF8  504F               	movf	___fladd@bexp^0,w,c
  3415  000BFA  B4D8               	btfsc	status,2,c
  3416  000BFC  EF02  F006         	goto	u1261
  3417  000C00  EF04  F006         	goto	u1260
  3418  000C04                     u1261:
  3419  000C04  EF19  F006         	goto	l1873
  3420  000C08                     u1260:
  3421  000C08  284F               	incf	___fladd@bexp^0,w,c
  3422  000C0A  A4D8               	btfss	status,2,c
  3423  000C0C  EF0A  F006         	goto	u1271
  3424  000C10  EF0C  F006         	goto	u1270
  3425  000C14                     u1271:
  3426  000C14  EF14  F006         	goto	l1869
  3427  000C18                     u1270:
  3428  000C18  0E00               	movlw	0
  3429  000C1A  6E41               	movwf	___fladd@b^0,c
  3430  000C1C  0E00               	movlw	0
  3431  000C1E  6E42               	movwf	(___fladd@b+1)^0,c
  3432  000C20  0E00               	movlw	0
  3433  000C22  6E43               	movwf	(___fladd@b+2)^0,c
  3434  000C24  0E00               	movlw	0
  3435  000C26  6E44               	movwf	(___fladd@b+3)^0,c
  3436  000C28                     l1869:
  3437  000C28  8E43               	bsf	(___fladd@b+2)^0,7,c
  3438  000C2A  0E00               	movlw	0
  3439  000C2C  6E44               	movwf	(___fladd@b+3)^0,c
  3440  000C2E  EF21  F006         	goto	l1875
  3441  000C32                     l1873:
  3442  000C32  0E00               	movlw	0
  3443  000C34  6E41               	movwf	___fladd@b^0,c
  3444  000C36  0E00               	movlw	0
  3445  000C38  6E42               	movwf	(___fladd@b+1)^0,c
  3446  000C3A  0E00               	movlw	0
  3447  000C3C  6E43               	movwf	(___fladd@b+2)^0,c
  3448  000C3E  0E00               	movlw	0
  3449  000C40  6E44               	movwf	(___fladd@b+3)^0,c
  3450  000C42                     l1875:
  3451  000C42  5048               	movf	(___fladd@a+3)^0,w,c
  3452  000C44  0B80               	andlw	128
  3453  000C46  6E4E               	movwf	___fladd@aexp^0,c
  3454  000C48  504D               	movf	___fladd@signs^0,w,c
  3455  000C4A  184E               	xorwf	___fladd@aexp^0,w,c
  3456  000C4C  B4D8               	btfsc	status,2,c
  3457  000C4E  EF2B  F006         	goto	u1281
  3458  000C52  EF2D  F006         	goto	u1280
  3459  000C56                     u1281:
  3460  000C56  EF2E  F006         	goto	l1881
  3461  000C5A                     u1280:
  3462  000C5A  8C4D               	bsf	___fladd@signs^0,6,c
  3463  000C5C                     l1881:
  3464  000C5C  5048               	movf	(___fladd@a+3)^0,w,c
  3465  000C5E  2448               	addwf	(___fladd@a+3)^0,w,c
  3466  000C60  6E4E               	movwf	___fladd@aexp^0,c
  3467  000C62  AE47               	btfss	(___fladd@a+2)^0,7,c
  3468  000C64  EF36  F006         	goto	u1291
  3469  000C68  EF38  F006         	goto	u1290
  3470  000C6C                     u1291:
  3471  000C6C  EF39  F006         	goto	l1887
  3472  000C70                     u1290:
  3473  000C70  804E               	bsf	___fladd@aexp^0,0,c
  3474  000C72                     l1887:
  3475  000C72  504E               	movf	___fladd@aexp^0,w,c
  3476  000C74  B4D8               	btfsc	status,2,c
  3477  000C76  EF3F  F006         	goto	u1301
  3478  000C7A  EF41  F006         	goto	u1300
  3479  000C7E                     u1301:
  3480  000C7E  EF56  F006         	goto	l1897
  3481  000C82                     u1300:
  3482  000C82  284E               	incf	___fladd@aexp^0,w,c
  3483  000C84  A4D8               	btfss	status,2,c
  3484  000C86  EF47  F006         	goto	u1311
  3485  000C8A  EF49  F006         	goto	u1310
  3486  000C8E                     u1311:
  3487  000C8E  EF51  F006         	goto	l1893
  3488  000C92                     u1310:
  3489  000C92  0E00               	movlw	0
  3490  000C94  6E45               	movwf	___fladd@a^0,c
  3491  000C96  0E00               	movlw	0
  3492  000C98  6E46               	movwf	(___fladd@a+1)^0,c
  3493  000C9A  0E00               	movlw	0
  3494  000C9C  6E47               	movwf	(___fladd@a+2)^0,c
  3495  000C9E  0E00               	movlw	0
  3496  000CA0  6E48               	movwf	(___fladd@a+3)^0,c
  3497  000CA2                     l1893:
  3498  000CA2  8E47               	bsf	(___fladd@a+2)^0,7,c
  3499  000CA4  0E00               	movlw	0
  3500  000CA6  6E48               	movwf	(___fladd@a+3)^0,c
  3501  000CA8  EF5E  F006         	goto	l1899
  3502  000CAC                     l1897:
  3503  000CAC  0E00               	movlw	0
  3504  000CAE  6E45               	movwf	___fladd@a^0,c
  3505  000CB0  0E00               	movlw	0
  3506  000CB2  6E46               	movwf	(___fladd@a+1)^0,c
  3507  000CB4  0E00               	movlw	0
  3508  000CB6  6E47               	movwf	(___fladd@a+2)^0,c
  3509  000CB8  0E00               	movlw	0
  3510  000CBA  6E48               	movwf	(___fladd@a+3)^0,c
  3511  000CBC                     l1899:
  3512  000CBC  504F               	movf	___fladd@bexp^0,w,c
  3513  000CBE  5C4E               	subwf	___fladd@aexp^0,w,c
  3514  000CC0  B0D8               	btfsc	status,0,c
  3515  000CC2  EF65  F006         	goto	u1321
  3516  000CC6  EF67  F006         	goto	u1320
  3517  000CCA                     u1321:
  3518  000CCA  EF8E  F006         	goto	l1935
  3519  000CCE                     u1320:
  3520  000CCE  AC4D               	btfss	___fladd@signs^0,6,c
  3521  000CD0  EF6C  F006         	goto	u1331
  3522  000CD4  EF6E  F006         	goto	u1330
  3523  000CD8                     u1331:
  3524  000CD8  EF70  F006         	goto	l1905
  3525  000CDC                     u1330:
  3526  000CDC  0E80               	movlw	128
  3527  000CDE  1A4D               	xorwf	___fladd@signs^0,f,c
  3528  000CE0                     l1905:
  3529  000CE0  C04F  F050         	movff	___fladd@bexp,___fladd@grs
  3530  000CE4  C04E  F04F         	movff	___fladd@aexp,___fladd@bexp
  3531  000CE8  C050  F04E         	movff	___fladd@grs,___fladd@aexp
  3532  000CEC  C041  F050         	movff	___fladd@b,___fladd@grs
  3533  000CF0  C045  F041         	movff	___fladd@a,___fladd@b
  3534  000CF4  C050  F045         	movff	___fladd@grs,___fladd@a
  3535  000CF8  C042  F050         	movff	___fladd@b+1,___fladd@grs
  3536  000CFC  C046  F042         	movff	___fladd@a+1,___fladd@b+1
  3537  000D00  C050  F046         	movff	___fladd@grs,___fladd@a+1
  3538  000D04  C043  F050         	movff	___fladd@b+2,___fladd@grs
  3539  000D08  C047  F043         	movff	___fladd@a+2,___fladd@b+2
  3540  000D0C  C050  F047         	movff	___fladd@grs,___fladd@a+2
  3541  000D10  C044  F050         	movff	___fladd@b+3,___fladd@grs
  3542  000D14  C048  F044         	movff	___fladd@a+3,___fladd@b+3
  3543  000D18  C050  F048         	movff	___fladd@grs,___fladd@a+3
  3544  000D1C                     l1935:
  3545  000D1C  0E00               	movlw	0
  3546  000D1E  6E50               	movwf	___fladd@grs^0,c
  3547  000D20  504F               	movf	___fladd@bexp^0,w,c
  3548  000D22  C04E  F049         	movff	___fladd@aexp,??___fladd
  3549  000D26  6A4A               	clrf	(??___fladd+1)^0,c
  3550  000D28  5E49               	subwf	??___fladd^0,f,c
  3551  000D2A  0E00               	movlw	0
  3552  000D2C  5A4A               	subwfb	(??___fladd+1)^0,f,c
  3553  000D2E  BE4A               	btfsc	(??___fladd+1)^0,7,c
  3554  000D30  EFA3  F006         	goto	u1341
  3555  000D34  504A               	movf	(??___fladd+1)^0,w,c
  3556  000D36  E109               	bnz	u1340
  3557  000D38  0E1A               	movlw	26
  3558  000D3A  5C49               	subwf	??___fladd^0,w,c
  3559  000D3C  A0D8               	btfss	status,0,c
  3560  000D3E  EFA3  F006         	goto	u1341
  3561  000D42  EFA5  F006         	goto	u1340
  3562  000D46                     u1341:
  3563  000D46  EFDC  F006         	goto	l707
  3564  000D4A                     u1340:
  3565  000D4A  5041               	movf	___fladd@b^0,w,c
  3566  000D4C  1042               	iorwf	(___fladd@b+1)^0,w,c
  3567  000D4E  1043               	iorwf	(___fladd@b+2)^0,w,c
  3568  000D50  1044               	iorwf	(___fladd@b+3)^0,w,c
  3569  000D52  A4D8               	btfss	status,2,c
  3570  000D54  EFAE  F006         	goto	u1351
  3571  000D58  EFB1  F006         	goto	u1350
  3572  000D5C                     u1351:
  3573  000D5C  0E01               	movlw	1
  3574  000D5E  EFB2  F006         	goto	u1360
  3575  000D62                     u1350:
  3576  000D62  0E00               	movlw	0
  3577  000D64                     u1360:
  3578  000D64  6E50               	movwf	___fladd@grs^0,c
  3579  000D66  0E00               	movlw	0
  3580  000D68  6E41               	movwf	___fladd@b^0,c
  3581  000D6A  0E00               	movlw	0
  3582  000D6C  6E42               	movwf	(___fladd@b+1)^0,c
  3583  000D6E  0E00               	movlw	0
  3584  000D70  6E43               	movwf	(___fladd@b+2)^0,c
  3585  000D72  0E00               	movlw	0
  3586  000D74  6E44               	movwf	(___fladd@b+3)^0,c
  3587  000D76  C04E  F04F         	movff	___fladd@aexp,___fladd@bexp
  3588  000D7A  EFE5  F006         	goto	l706
  3589  000D7E                     l708:
  3590  000D7E  A050               	btfss	___fladd@grs^0,0,c
  3591  000D80  EFC4  F006         	goto	u1371
  3592  000D84  EFC6  F006         	goto	u1370
  3593  000D88                     u1371:
  3594  000D88  EFCC  F006         	goto	l1947
  3595  000D8C                     u1370:
  3596  000D8C  90D8               	bcf	status,0,c
  3597  000D8E  3050               	rrcf	___fladd@grs^0,w,c
  3598  000D90  0901               	iorlw	1
  3599  000D92  6E50               	movwf	___fladd@grs^0,c
  3600  000D94  EFCE  F006         	goto	l1949
  3601  000D98                     l1947:
  3602  000D98  90D8               	bcf	status,0,c
  3603  000D9A  3250               	rrcf	___fladd@grs^0,f,c
  3604  000D9C                     l1949:
  3605  000D9C  A041               	btfss	___fladd@b^0,0,c
  3606  000D9E  EFD3  F006         	goto	u1381
  3607  000DA2  EFD5  F006         	goto	u1380
  3608  000DA6                     u1381:
  3609  000DA6  EFD6  F006         	goto	l1953
  3610  000DAA                     u1380:
  3611  000DAA  8E50               	bsf	___fladd@grs^0,7,c
  3612  000DAC                     l1953:
  3613  000DAC  3444               	rlcf	(___fladd@b+3)^0,w,c
  3614  000DAE  3244               	rrcf	(___fladd@b+3)^0,f,c
  3615  000DB0  3243               	rrcf	(___fladd@b+2)^0,f,c
  3616  000DB2  3242               	rrcf	(___fladd@b+1)^0,f,c
  3617  000DB4  3241               	rrcf	___fladd@b^0,f,c
  3618  000DB6  2A4F               	incf	___fladd@bexp^0,f,c
  3619  000DB8                     l707:
  3620  000DB8  504E               	movf	___fladd@aexp^0,w,c
  3621  000DBA  5C4F               	subwf	___fladd@bexp^0,w,c
  3622  000DBC  A0D8               	btfss	status,0,c
  3623  000DBE  EFE3  F006         	goto	u1391
  3624  000DC2  EFE5  F006         	goto	u1390
  3625  000DC6                     u1391:
  3626  000DC6  EFBF  F006         	goto	l708
  3627  000DCA                     u1390:
  3628  000DCA                     l706:
  3629  000DCA  BC4D               	btfsc	___fladd@signs^0,6,c
  3630  000DCC  EFEA  F006         	goto	u1401
  3631  000DD0  EFEC  F006         	goto	u1400
  3632  000DD4                     u1401:
  3633  000DD4  EF2C  F007         	goto	l1981
  3634  000DD8                     u1400:
  3635  000DD8  504F               	movf	___fladd@bexp^0,w,c
  3636  000DDA  A4D8               	btfss	status,2,c
  3637  000DDC  EFF2  F006         	goto	u1411
  3638  000DE0  EFF4  F006         	goto	u1410
  3639  000DE4                     u1411:
  3640  000DE4  EFFE  F006         	goto	l1963
  3641  000DE8                     u1410:
  3642  000DE8  0E00               	movlw	0
  3643  000DEA  6E41               	movwf	?___fladd^0,c
  3644  000DEC  0E00               	movlw	0
  3645  000DEE  6E42               	movwf	(?___fladd+1)^0,c
  3646  000DF0  0E00               	movlw	0
  3647  000DF2  6E43               	movwf	(?___fladd+2)^0,c
  3648  000DF4  0E00               	movlw	0
  3649  000DF6  6E44               	movwf	(?___fladd+3)^0,c
  3650  000DF8  EF4D  F008         	goto	l715
  3651  000DFC                     l1963:
  3652  000DFC  5045               	movf	___fladd@a^0,w,c
  3653  000DFE  2641               	addwf	___fladd@b^0,f,c
  3654  000E00  5046               	movf	(___fladd@a+1)^0,w,c
  3655  000E02  2242               	addwfc	(___fladd@b+1)^0,f,c
  3656  000E04  5047               	movf	(___fladd@a+2)^0,w,c
  3657  000E06  2243               	addwfc	(___fladd@b+2)^0,f,c
  3658  000E08  5048               	movf	(___fladd@a+3)^0,w,c
  3659  000E0A  2244               	addwfc	(___fladd@b+3)^0,f,c
  3660  000E0C  A044               	btfss	(___fladd@b+3)^0,0,c
  3661  000E0E  EF0B  F007         	goto	u1421
  3662  000E12  EF0D  F007         	goto	u1420
  3663  000E16                     u1421:
  3664  000E16  EFB9  F007         	goto	l2017
  3665  000E1A                     u1420:
  3666  000E1A  A050               	btfss	___fladd@grs^0,0,c
  3667  000E1C  EF12  F007         	goto	u1431
  3668  000E20  EF14  F007         	goto	u1430
  3669  000E24                     u1431:
  3670  000E24  EF1A  F007         	goto	l1971
  3671  000E28                     u1430:
  3672  000E28  90D8               	bcf	status,0,c
  3673  000E2A  3050               	rrcf	___fladd@grs^0,w,c
  3674  000E2C  0901               	iorlw	1
  3675  000E2E  6E50               	movwf	___fladd@grs^0,c
  3676  000E30  EF1C  F007         	goto	l1973
  3677  000E34                     l1971:
  3678  000E34  90D8               	bcf	status,0,c
  3679  000E36  3250               	rrcf	___fladd@grs^0,f,c
  3680  000E38                     l1973:
  3681  000E38  A041               	btfss	___fladd@b^0,0,c
  3682  000E3A  EF21  F007         	goto	u1441
  3683  000E3E  EF23  F007         	goto	u1440
  3684  000E42                     u1441:
  3685  000E42  EF24  F007         	goto	l1977
  3686  000E46                     u1440:
  3687  000E46  8E50               	bsf	___fladd@grs^0,7,c
  3688  000E48                     l1977:
  3689  000E48  3444               	rlcf	(___fladd@b+3)^0,w,c
  3690  000E4A  3244               	rrcf	(___fladd@b+3)^0,f,c
  3691  000E4C  3243               	rrcf	(___fladd@b+2)^0,f,c
  3692  000E4E  3242               	rrcf	(___fladd@b+1)^0,f,c
  3693  000E50  3241               	rrcf	___fladd@b^0,f,c
  3694  000E52  2A4F               	incf	___fladd@bexp^0,f,c
  3695  000E54  EFB9  F007         	goto	l2017
  3696  000E58                     l1981:
  3697  000E58  5045               	movf	___fladd@a^0,w,c
  3698  000E5A  5C41               	subwf	___fladd@b^0,w,c
  3699  000E5C  5046               	movf	(___fladd@a+1)^0,w,c
  3700  000E5E  5842               	subwfb	(___fladd@b+1)^0,w,c
  3701  000E60  5047               	movf	(___fladd@a+2)^0,w,c
  3702  000E62  5843               	subwfb	(___fladd@b+2)^0,w,c
  3703  000E64  5044               	movf	(___fladd@b+3)^0,w,c
  3704  000E66  0A80               	xorlw	128
  3705  000E68  6E49               	movwf	??___fladd^0,c
  3706  000E6A  5048               	movf	(___fladd@a+3)^0,w,c
  3707  000E6C  0A80               	xorlw	128
  3708  000E6E  5849               	subwfb	??___fladd^0,w,c
  3709  000E70  B0D8               	btfsc	status,0,c
  3710  000E72  EF3D  F007         	goto	u1451
  3711  000E76  EF3F  F007         	goto	u1450
  3712  000E7A                     u1451:
  3713  000E7A  EF6A  F007         	goto	l1991
  3714  000E7E                     u1450:
  3715  000E7E  5041               	movf	___fladd@b^0,w,c
  3716  000E80  5C45               	subwf	___fladd@a^0,w,c
  3717  000E82  6E49               	movwf	??___fladd^0,c
  3718  000E84  5042               	movf	(___fladd@b+1)^0,w,c
  3719  000E86  5846               	subwfb	(___fladd@a+1)^0,w,c
  3720  000E88  6E4A               	movwf	(??___fladd+1)^0,c
  3721  000E8A  5043               	movf	(___fladd@b+2)^0,w,c
  3722  000E8C  5847               	subwfb	(___fladd@a+2)^0,w,c
  3723  000E8E  6E4B               	movwf	(??___fladd+2)^0,c
  3724  000E90  5044               	movf	(___fladd@b+3)^0,w,c
  3725  000E92  5848               	subwfb	(___fladd@a+3)^0,w,c
  3726  000E94  6E4C               	movwf	(??___fladd+3)^0,c
  3727  000E96  0EFF               	movlw	255
  3728  000E98  2449               	addwf	??___fladd^0,w,c
  3729  000E9A  6E41               	movwf	___fladd@b^0,c
  3730  000E9C  0EFF               	movlw	255
  3731  000E9E  204A               	addwfc	(??___fladd+1)^0,w,c
  3732  000EA0  6E42               	movwf	(___fladd@b+1)^0,c
  3733  000EA2  0EFF               	movlw	255
  3734  000EA4  204B               	addwfc	(??___fladd+2)^0,w,c
  3735  000EA6  6E43               	movwf	(___fladd@b+2)^0,c
  3736  000EA8  0EFF               	movlw	255
  3737  000EAA  204C               	addwfc	(??___fladd+3)^0,w,c
  3738  000EAC  6E44               	movwf	(___fladd@b+3)^0,c
  3739  000EAE  0E80               	movlw	128
  3740  000EB0  1A4D               	xorwf	___fladd@signs^0,f,c
  3741  000EB2  6C50               	negf	___fladd@grs^0,c
  3742  000EB4  5050               	movf	___fladd@grs^0,w,c
  3743  000EB6  A4D8               	btfss	status,2,c
  3744  000EB8  EF60  F007         	goto	u1461
  3745  000EBC  EF62  F007         	goto	u1460
  3746  000EC0                     u1461:
  3747  000EC0  EF72  F007         	goto	l723
  3748  000EC4                     u1460:
  3749  000EC4  0E01               	movlw	1
  3750  000EC6  2641               	addwf	___fladd@b^0,f,c
  3751  000EC8  0E00               	movlw	0
  3752  000ECA  2242               	addwfc	(___fladd@b+1)^0,f,c
  3753  000ECC  2243               	addwfc	(___fladd@b+2)^0,f,c
  3754  000ECE  2244               	addwfc	(___fladd@b+3)^0,f,c
  3755  000ED0  EF72  F007         	goto	l723
  3756  000ED4                     l1991:
  3757  000ED4  5045               	movf	___fladd@a^0,w,c
  3758  000ED6  5E41               	subwf	___fladd@b^0,f,c
  3759  000ED8  5046               	movf	(___fladd@a+1)^0,w,c
  3760  000EDA  5A42               	subwfb	(___fladd@b+1)^0,f,c
  3761  000EDC  5047               	movf	(___fladd@a+2)^0,w,c
  3762  000EDE  5A43               	subwfb	(___fladd@b+2)^0,f,c
  3763  000EE0  5048               	movf	(___fladd@a+3)^0,w,c
  3764  000EE2  5A44               	subwfb	(___fladd@b+3)^0,f,c
  3765  000EE4                     l723:
  3766  000EE4  5041               	movf	___fladd@b^0,w,c
  3767  000EE6  1042               	iorwf	(___fladd@b+1)^0,w,c
  3768  000EE8  1043               	iorwf	(___fladd@b+2)^0,w,c
  3769  000EEA  1044               	iorwf	(___fladd@b+3)^0,w,c
  3770  000EEC  A4D8               	btfss	status,2,c
  3771  000EEE  EF7B  F007         	goto	u1471
  3772  000EF2  EF7D  F007         	goto	u1470
  3773  000EF6                     u1471:
  3774  000EF6  EFB2  F007         	goto	l2015
  3775  000EFA                     u1470:
  3776  000EFA  5050               	movf	___fladd@grs^0,w,c
  3777  000EFC  A4D8               	btfss	status,2,c
  3778  000EFE  EF83  F007         	goto	u1481
  3779  000F02  EF85  F007         	goto	u1480
  3780  000F06                     u1481:
  3781  000F06  EFB2  F007         	goto	l2015
  3782  000F0A                     u1480:
  3783  000F0A  0E00               	movlw	0
  3784  000F0C  6E41               	movwf	?___fladd^0,c
  3785  000F0E  0E00               	movlw	0
  3786  000F10  6E42               	movwf	(?___fladd+1)^0,c
  3787  000F12  0E00               	movlw	0
  3788  000F14  6E43               	movwf	(?___fladd+2)^0,c
  3789  000F16  0E00               	movlw	0
  3790  000F18  6E44               	movwf	(?___fladd+3)^0,c
  3791  000F1A  EF4D  F008         	goto	l715
  3792  000F1E                     l1999:
  3793  000F1E  90D8               	bcf	status,0,c
  3794  000F20  3641               	rlcf	___fladd@b^0,f,c
  3795  000F22  3642               	rlcf	(___fladd@b+1)^0,f,c
  3796  000F24  3643               	rlcf	(___fladd@b+2)^0,f,c
  3797  000F26  3644               	rlcf	(___fladd@b+3)^0,f,c
  3798  000F28  AE50               	btfss	___fladd@grs^0,7,c
  3799  000F2A  EF99  F007         	goto	u1491
  3800  000F2E  EF9B  F007         	goto	u1490
  3801  000F32                     u1491:
  3802  000F32  EF9C  F007         	goto	l2005
  3803  000F36                     u1490:
  3804  000F36  8041               	bsf	___fladd@b^0,0,c
  3805  000F38                     l2005:
  3806  000F38  A050               	btfss	___fladd@grs^0,0,c
  3807  000F3A  EFA1  F007         	goto	u1501
  3808  000F3E  EFA3  F007         	goto	u1500
  3809  000F42                     u1501:
  3810  000F42  EFA7  F007         	goto	l2009
  3811  000F46                     u1500:
  3812  000F46  80D8               	bsf	status,0,c
  3813  000F48  3650               	rlcf	___fladd@grs^0,f,c
  3814  000F4A  EFA9  F007         	goto	l2011
  3815  000F4E                     l2009:
  3816  000F4E  90D8               	bcf	status,0,c
  3817  000F50  3650               	rlcf	___fladd@grs^0,f,c
  3818  000F52                     l2011:
  3819  000F52  504F               	movf	___fladd@bexp^0,w,c
  3820  000F54  B4D8               	btfsc	status,2,c
  3821  000F56  EFAF  F007         	goto	u1511
  3822  000F5A  EFB1  F007         	goto	u1510
  3823  000F5E                     u1511:
  3824  000F5E  EFB2  F007         	goto	l2015
  3825  000F62                     u1510:
  3826  000F62  064F               	decf	___fladd@bexp^0,f,c
  3827  000F64                     l2015:
  3828  000F64  AE43               	btfss	(___fladd@b+2)^0,7,c
  3829  000F66  EFB7  F007         	goto	u1521
  3830  000F6A  EFB9  F007         	goto	u1520
  3831  000F6E                     u1521:
  3832  000F6E  EF8F  F007         	goto	l1999
  3833  000F72                     u1520:
  3834  000F72                     l2017:
  3835  000F72  0E00               	movlw	0
  3836  000F74  6E4E               	movwf	___fladd@aexp^0,c
  3837  000F76  AE50               	btfss	___fladd@grs^0,7,c
  3838  000F78  EFC0  F007         	goto	u1531
  3839  000F7C  EFC2  F007         	goto	u1530
  3840  000F80                     u1531:
  3841  000F80  EFDA  F007         	goto	l732
  3842  000F84                     u1530:
  3843  000F84  C050  F049         	movff	___fladd@grs,??___fladd
  3844  000F88  0E7F               	movlw	127
  3845  000F8A  1649               	andwf	??___fladd^0,f,c
  3846  000F8C  B4D8               	btfsc	status,2,c
  3847  000F8E  EFCB  F007         	goto	u1541
  3848  000F92  EFCD  F007         	goto	u1540
  3849  000F96                     u1541:
  3850  000F96  EFD1  F007         	goto	l733
  3851  000F9A                     u1540:
  3852  000F9A                     l2023:
  3853  000F9A  0E01               	movlw	1
  3854  000F9C  6E4E               	movwf	___fladd@aexp^0,c
  3855  000F9E  EFDA  F007         	goto	l732
  3856  000FA2                     l733:
  3857  000FA2  A041               	btfss	___fladd@b^0,0,c
  3858  000FA4  EFD6  F007         	goto	u1551
  3859  000FA8  EFD8  F007         	goto	u1550
  3860  000FAC                     u1551:
  3861  000FAC  EFDA  F007         	goto	l732
  3862  000FB0                     u1550:
  3863  000FB0  EFCD  F007         	goto	l2023
  3864  000FB4                     l732:
  3865  000FB4  504E               	movf	___fladd@aexp^0,w,c
  3866  000FB6  B4D8               	btfsc	status,2,c
  3867  000FB8  EFE0  F007         	goto	u1561
  3868  000FBC  EFE2  F007         	goto	u1560
  3869  000FC0                     u1561:
  3870  000FC0  EF0D  F008         	goto	l2035
  3871  000FC4                     u1560:
  3872  000FC4  0E01               	movlw	1
  3873  000FC6  2641               	addwf	___fladd@b^0,f,c
  3874  000FC8  0E00               	movlw	0
  3875  000FCA  2242               	addwfc	(___fladd@b+1)^0,f,c
  3876  000FCC  2243               	addwfc	(___fladd@b+2)^0,f,c
  3877  000FCE  2244               	addwfc	(___fladd@b+3)^0,f,c
  3878  000FD0  A044               	btfss	(___fladd@b+3)^0,0,c
  3879  000FD2  EFED  F007         	goto	u1571
  3880  000FD6  EFEF  F007         	goto	u1570
  3881  000FDA                     u1571:
  3882  000FDA  EF0D  F008         	goto	l2035
  3883  000FDE                     u1570:
  3884  000FDE  C041  F049         	movff	___fladd@b,??___fladd
  3885  000FE2  C042  F04A         	movff	___fladd@b+1,??___fladd+1
  3886  000FE6  C043  F04B         	movff	___fladd@b+2,??___fladd+2
  3887  000FEA  C044  F04C         	movff	___fladd@b+3,??___fladd+3
  3888  000FEE  344C               	rlcf	(??___fladd+3)^0,w,c
  3889  000FF0  324C               	rrcf	(??___fladd+3)^0,f,c
  3890  000FF2  324B               	rrcf	(??___fladd+2)^0,f,c
  3891  000FF4  324A               	rrcf	(??___fladd+1)^0,f,c
  3892  000FF6  3249               	rrcf	??___fladd^0,f,c
  3893  000FF8  C049  F041         	movff	??___fladd,___fladd@b
  3894  000FFC  C04A  F042         	movff	??___fladd+1,___fladd@b+1
  3895  001000  C04B  F043         	movff	??___fladd+2,___fladd@b+2
  3896  001004  C04C  F044         	movff	??___fladd+3,___fladd@b+3
  3897  001008  284F               	incf	___fladd@bexp^0,w,c
  3898  00100A  B4D8               	btfsc	status,2,c
  3899  00100C  EF0A  F008         	goto	u1581
  3900  001010  EF0C  F008         	goto	u1580
  3901  001014                     u1581:
  3902  001014  EF0D  F008         	goto	l2035
  3903  001018                     u1580:
  3904  001018  2A4F               	incf	___fladd@bexp^0,f,c
  3905  00101A                     l2035:
  3906  00101A  284F               	incf	___fladd@bexp^0,w,c
  3907  00101C  B4D8               	btfsc	status,2,c
  3908  00101E  EF13  F008         	goto	u1591
  3909  001022  EF15  F008         	goto	u1590
  3910  001026                     u1591:
  3911  001026  EF1D  F008         	goto	l2039
  3912  00102A                     u1590:
  3913  00102A  504F               	movf	___fladd@bexp^0,w,c
  3914  00102C  A4D8               	btfss	status,2,c
  3915  00102E  EF1B  F008         	goto	u1601
  3916  001032  EF1D  F008         	goto	u1600
  3917  001036                     u1601:
  3918  001036  EF2F  F008         	goto	l2043
  3919  00103A                     u1600:
  3920  00103A                     l2039:
  3921  00103A  0E00               	movlw	0
  3922  00103C  6E41               	movwf	___fladd@b^0,c
  3923  00103E  0E00               	movlw	0
  3924  001040  6E42               	movwf	(___fladd@b+1)^0,c
  3925  001042  0E00               	movlw	0
  3926  001044  6E43               	movwf	(___fladd@b+2)^0,c
  3927  001046  0E00               	movlw	0
  3928  001048  6E44               	movwf	(___fladd@b+3)^0,c
  3929  00104A  504F               	movf	___fladd@bexp^0,w,c
  3930  00104C  A4D8               	btfss	status,2,c
  3931  00104E  EF2B  F008         	goto	u1611
  3932  001052  EF2D  F008         	goto	u1610
  3933  001056                     u1611:
  3934  001056  EF2F  F008         	goto	l2043
  3935  00105A                     u1610:
  3936  00105A  0E00               	movlw	0
  3937  00105C  6E4D               	movwf	___fladd@signs^0,c
  3938  00105E                     l2043:
  3939  00105E  A04F               	btfss	___fladd@bexp^0,0,c
  3940  001060  EF34  F008         	goto	u1621
  3941  001064  EF36  F008         	goto	u1620
  3942  001068                     u1621:
  3943  001068  EF39  F008         	goto	l2047
  3944  00106C                     u1620:
  3945  00106C  8E43               	bsf	(___fladd@b+2)^0,7,c
  3946  00106E  EF3A  F008         	goto	l2049
  3947  001072                     l2047:
  3948  001072  9E43               	bcf	(___fladd@b+2)^0,7,c
  3949  001074                     l2049:
  3950  001074  90D8               	bcf	status,0,c
  3951  001076  304F               	rrcf	___fladd@bexp^0,w,c
  3952  001078  6E44               	movwf	(___fladd@b+3)^0,c
  3953  00107A  AE4D               	btfss	___fladd@signs^0,7,c
  3954  00107C  EF42  F008         	goto	u1631
  3955  001080  EF44  F008         	goto	u1630
  3956  001084                     u1631:
  3957  001084  EF45  F008         	goto	l2055
  3958  001088                     u1630:
  3959  001088  8E44               	bsf	(___fladd@b+3)^0,7,c
  3960  00108A                     l2055:
  3961  00108A  C041  F041         	movff	___fladd@b,?___fladd
  3962  00108E  C042  F042         	movff	___fladd@b+1,?___fladd+1
  3963  001092  C043  F043         	movff	___fladd@b+2,?___fladd+2
  3964  001096  C044  F044         	movff	___fladd@b+3,?___fladd+3
  3965  00109A                     l715:
  3966  00109A  0012               	return		;funcret
  3967  00109C                     __end_of___fladd:
  3968                           	opt callstack 0
  3969                           
  3970 ;; *************** function ___fldiv *****************
  3971 ;; Defined at:
  3972 ;;		line 11 in file "C:\Program Files (x86)\Microchip\xc8\v2.10\pic\sources\c99\common\sprcdiv.c"
  3973 ;; Parameters:    Size  Location     Type
  3974 ;;  b               4   14[COMRAM] unsigned char 
  3975 ;;  a               4   18[COMRAM] unsigned char 
  3976 ;; Auto vars:     Size  Location     Type
  3977 ;;  grs             4   33[COMRAM] unsigned long 
  3978 ;;  rem             4   26[COMRAM] unsigned long 
  3979 ;;  new_exp         2   31[COMRAM] short 
  3980 ;;  aexp            1   38[COMRAM] unsigned char 
  3981 ;;  bexp            1   37[COMRAM] unsigned char 
  3982 ;;  sign            1   30[COMRAM] unsigned char 
  3983 ;; Return value:  Size  Location     Type
  3984 ;;                  4   14[COMRAM] unsigned char 
  3985 ;; Registers used:
  3986 ;;		wreg, status,2, status,0
  3987 ;; Tracked objects:
  3988 ;;		On entry : 0/0
  3989 ;;		On exit  : 0/0
  3990 ;;		Unchanged: 0/0
  3991 ;; Data sizes:     COMRAM   BANK0   BANK1   BANK2   BANK3   BANK4   BANK5
  3992 ;;      Params:         8       0       0       0       0       0       0
  3993 ;;      Locals:        13       0       0       0       0       0       0
  3994 ;;      Temps:          4       0       0       0       0       0       0
  3995 ;;      Totals:        25       0       0       0       0       0       0
  3996 ;;Total ram usage:       25 bytes
  3997 ;; Hardware stack levels used:    1
  3998 ;; This function calls:
  3999 ;;		Nothing
  4000 ;; This function is called by:
  4001 ;;		_main
  4002 ;; This function uses a non-reentrant model
  4003 ;;
  4004                           
  4005                           	psect	text12
  4006  001956                     __ptext12:
  4007                           	opt callstack 0
  4008  001956                     ___fldiv:
  4009                           	opt callstack 30
  4010  001956  5012               	movf	(___fldiv@b+3)^0,w,c
  4011  001958  0B80               	andlw	128
  4012  00195A  6E1F               	movwf	___fldiv@sign^0,c
  4013  00195C  5012               	movf	(___fldiv@b+3)^0,w,c
  4014  00195E  2412               	addwf	(___fldiv@b+3)^0,w,c
  4015  001960  6E26               	movwf	___fldiv@bexp^0,c
  4016  001962  AE11               	btfss	(___fldiv@b+2)^0,7,c
  4017  001964  EFB6  F00C         	goto	u2201
  4018  001968  EFB8  F00C         	goto	u2200
  4019  00196C                     u2201:
  4020  00196C  EFB9  F00C         	goto	l2525
  4021  001970                     u2200:
  4022  001970  8026               	bsf	___fldiv@bexp^0,0,c
  4023  001972                     l2525:
  4024  001972  5026               	movf	___fldiv@bexp^0,w,c
  4025  001974  B4D8               	btfsc	status,2,c
  4026  001976  EFBF  F00C         	goto	u2211
  4027  00197A  EFC1  F00C         	goto	u2210
  4028  00197E                     u2211:
  4029  00197E  EFD6  F00C         	goto	l2535
  4030  001982                     u2210:
  4031  001982  2826               	incf	___fldiv@bexp^0,w,c
  4032  001984  A4D8               	btfss	status,2,c
  4033  001986  EFC7  F00C         	goto	u2221
  4034  00198A  EFC9  F00C         	goto	u2220
  4035  00198E                     u2221:
  4036  00198E  EFD1  F00C         	goto	l2531
  4037  001992                     u2220:
  4038  001992  0E00               	movlw	0
  4039  001994  6E0F               	movwf	___fldiv@b^0,c
  4040  001996  0E00               	movlw	0
  4041  001998  6E10               	movwf	(___fldiv@b+1)^0,c
  4042  00199A  0E00               	movlw	0
  4043  00199C  6E11               	movwf	(___fldiv@b+2)^0,c
  4044  00199E  0E00               	movlw	0
  4045  0019A0  6E12               	movwf	(___fldiv@b+3)^0,c
  4046  0019A2                     l2531:
  4047  0019A2  8E11               	bsf	(___fldiv@b+2)^0,7,c
  4048  0019A4  0E00               	movlw	0
  4049  0019A6  6E12               	movwf	(___fldiv@b+3)^0,c
  4050  0019A8  EFDE  F00C         	goto	l2537
  4051  0019AC                     l2535:
  4052  0019AC  0E00               	movlw	0
  4053  0019AE  6E0F               	movwf	___fldiv@b^0,c
  4054  0019B0  0E00               	movlw	0
  4055  0019B2  6E10               	movwf	(___fldiv@b+1)^0,c
  4056  0019B4  0E00               	movlw	0
  4057  0019B6  6E11               	movwf	(___fldiv@b+2)^0,c
  4058  0019B8  0E00               	movlw	0
  4059  0019BA  6E12               	movwf	(___fldiv@b+3)^0,c
  4060  0019BC                     l2537:
  4061  0019BC  5016               	movf	(___fldiv@a+3)^0,w,c
  4062  0019BE  0B80               	andlw	128
  4063  0019C0  1A1F               	xorwf	___fldiv@sign^0,f,c
  4064  0019C2  5016               	movf	(___fldiv@a+3)^0,w,c
  4065  0019C4  2416               	addwf	(___fldiv@a+3)^0,w,c
  4066  0019C6  6E27               	movwf	___fldiv@aexp^0,c
  4067  0019C8  AE15               	btfss	(___fldiv@a+2)^0,7,c
  4068  0019CA  EFE9  F00C         	goto	u2231
  4069  0019CE  EFEB  F00C         	goto	u2230
  4070  0019D2                     u2231:
  4071  0019D2  EFEC  F00C         	goto	l2545
  4072  0019D6                     u2230:
  4073  0019D6  8027               	bsf	___fldiv@aexp^0,0,c
  4074  0019D8                     l2545:
  4075  0019D8  5027               	movf	___fldiv@aexp^0,w,c
  4076  0019DA  B4D8               	btfsc	status,2,c
  4077  0019DC  EFF2  F00C         	goto	u2241
  4078  0019E0  EFF4  F00C         	goto	u2240
  4079  0019E4                     u2241:
  4080  0019E4  EF09  F00D         	goto	l2555
  4081  0019E8                     u2240:
  4082  0019E8  2827               	incf	___fldiv@aexp^0,w,c
  4083  0019EA  A4D8               	btfss	status,2,c
  4084  0019EC  EFFA  F00C         	goto	u2251
  4085  0019F0  EFFC  F00C         	goto	u2250
  4086  0019F4                     u2251:
  4087  0019F4  EF04  F00D         	goto	l2551
  4088  0019F8                     u2250:
  4089  0019F8  0E00               	movlw	0
  4090  0019FA  6E13               	movwf	___fldiv@a^0,c
  4091  0019FC  0E00               	movlw	0
  4092  0019FE  6E14               	movwf	(___fldiv@a+1)^0,c
  4093  001A00  0E00               	movlw	0
  4094  001A02  6E15               	movwf	(___fldiv@a+2)^0,c
  4095  001A04  0E00               	movlw	0
  4096  001A06  6E16               	movwf	(___fldiv@a+3)^0,c
  4097  001A08                     l2551:
  4098  001A08  8E15               	bsf	(___fldiv@a+2)^0,7,c
  4099  001A0A  0E00               	movlw	0
  4100  001A0C  6E16               	movwf	(___fldiv@a+3)^0,c
  4101  001A0E  EF11  F00D         	goto	l2557
  4102  001A12                     l2555:
  4103  001A12  0E00               	movlw	0
  4104  001A14  6E13               	movwf	___fldiv@a^0,c
  4105  001A16  0E00               	movlw	0
  4106  001A18  6E14               	movwf	(___fldiv@a+1)^0,c
  4107  001A1A  0E00               	movlw	0
  4108  001A1C  6E15               	movwf	(___fldiv@a+2)^0,c
  4109  001A1E  0E00               	movlw	0
  4110  001A20  6E16               	movwf	(___fldiv@a+3)^0,c
  4111  001A22                     l2557:
  4112  001A22  5013               	movf	___fldiv@a^0,w,c
  4113  001A24  1014               	iorwf	(___fldiv@a+1)^0,w,c
  4114  001A26  1015               	iorwf	(___fldiv@a+2)^0,w,c
  4115  001A28  1016               	iorwf	(___fldiv@a+3)^0,w,c
  4116  001A2A  A4D8               	btfss	status,2,c
  4117  001A2C  EF1A  F00D         	goto	u2261
  4118  001A30  EF1C  F00D         	goto	u2260
  4119  001A34                     u2261:
  4120  001A34  EF34  F00D         	goto	l2569
  4121  001A38                     u2260:
  4122  001A38  0E00               	movlw	0
  4123  001A3A  6E0F               	movwf	___fldiv@b^0,c
  4124  001A3C  0E00               	movlw	0
  4125  001A3E  6E10               	movwf	(___fldiv@b+1)^0,c
  4126  001A40  0E00               	movlw	0
  4127  001A42  6E11               	movwf	(___fldiv@b+2)^0,c
  4128  001A44  0E00               	movlw	0
  4129  001A46  6E12               	movwf	(___fldiv@b+3)^0,c
  4130  001A48  0E80               	movlw	128
  4131  001A4A  1211               	iorwf	(___fldiv@b+2)^0,f,c
  4132  001A4C  0E7F               	movlw	127
  4133  001A4E  1212               	iorwf	(___fldiv@b+3)^0,f,c
  4134  001A50                     l2563:
  4135  001A50  501F               	movf	___fldiv@sign^0,w,c
  4136  001A52  1212               	iorwf	(___fldiv@b+3)^0,f,c
  4137  001A54  C00F  F00F         	movff	___fldiv@b,?___fldiv
  4138  001A58  C010  F010         	movff	___fldiv@b+1,?___fldiv+1
  4139  001A5C  C011  F011         	movff	___fldiv@b+2,?___fldiv+2
  4140  001A60  C012  F012         	movff	___fldiv@b+3,?___fldiv+3
  4141  001A64  EF77  F00E         	goto	l760
  4142  001A68                     l2569:
  4143  001A68  5026               	movf	___fldiv@bexp^0,w,c
  4144  001A6A  A4D8               	btfss	status,2,c
  4145  001A6C  EF3A  F00D         	goto	u2271
  4146  001A70  EF3C  F00D         	goto	u2270
  4147  001A74                     u2271:
  4148  001A74  EF46  F00D         	goto	l2577
  4149  001A78                     u2270:
  4150  001A78  0E00               	movlw	0
  4151  001A7A  6E0F               	movwf	?___fldiv^0,c
  4152  001A7C  0E00               	movlw	0
  4153  001A7E  6E10               	movwf	(?___fldiv+1)^0,c
  4154  001A80  0E00               	movlw	0
  4155  001A82  6E11               	movwf	(?___fldiv+2)^0,c
  4156  001A84  0E00               	movlw	0
  4157  001A86  6E12               	movwf	(?___fldiv+3)^0,c
  4158  001A88  EF77  F00E         	goto	l760
  4159  001A8C                     l2577:
  4160  001A8C  5027               	movf	___fldiv@aexp^0,w,c
  4161  001A8E  C026  F017         	movff	___fldiv@bexp,??___fldiv
  4162  001A92  6A18               	clrf	(??___fldiv+1)^0,c
  4163  001A94  5E17               	subwf	??___fldiv^0,f,c
  4164  001A96  0E00               	movlw	0
  4165  001A98  5A18               	subwfb	(??___fldiv+1)^0,f,c
  4166  001A9A  0E7F               	movlw	127
  4167  001A9C  2417               	addwf	??___fldiv^0,w,c
  4168  001A9E  6E20               	movwf	___fldiv@new_exp^0,c
  4169  001AA0  0E00               	movlw	0
  4170  001AA2  2018               	addwfc	(??___fldiv+1)^0,w,c
  4171  001AA4  6E21               	movwf	(___fldiv@new_exp+1)^0,c
  4172  001AA6  C00F  F01B         	movff	___fldiv@b,___fldiv@rem
  4173  001AAA  C010  F01C         	movff	___fldiv@b+1,___fldiv@rem+1
  4174  001AAE  C011  F01D         	movff	___fldiv@b+2,___fldiv@rem+2
  4175  001AB2  C012  F01E         	movff	___fldiv@b+3,___fldiv@rem+3
  4176  001AB6  0E00               	movlw	0
  4177  001AB8  6E0F               	movwf	___fldiv@b^0,c
  4178  001ABA  0E00               	movlw	0
  4179  001ABC  6E10               	movwf	(___fldiv@b+1)^0,c
  4180  001ABE  0E00               	movlw	0
  4181  001AC0  6E11               	movwf	(___fldiv@b+2)^0,c
  4182  001AC2  0E00               	movlw	0
  4183  001AC4  6E12               	movwf	(___fldiv@b+3)^0,c
  4184  001AC6  0E00               	movlw	0
  4185  001AC8  6E22               	movwf	___fldiv@grs^0,c
  4186  001ACA  0E00               	movlw	0
  4187  001ACC  6E23               	movwf	(___fldiv@grs+1)^0,c
  4188  001ACE  0E00               	movlw	0
  4189  001AD0  6E24               	movwf	(___fldiv@grs+2)^0,c
  4190  001AD2  0E00               	movlw	0
  4191  001AD4  6E25               	movwf	(___fldiv@grs+3)^0,c
  4192  001AD6  0E00               	movlw	0
  4193  001AD8  6E27               	movwf	___fldiv@aexp^0,c
  4194  001ADA  EFA7  F00D         	goto	l762
  4195  001ADE                     l2587:
  4196  001ADE  5027               	movf	___fldiv@aexp^0,w,c
  4197  001AE0  B4D8               	btfsc	status,2,c
  4198  001AE2  EF75  F00D         	goto	u2281
  4199  001AE6  EF77  F00D         	goto	u2280
  4200  001AEA                     u2281:
  4201  001AEA  EF8E  F00D         	goto	l2595
  4202  001AEE                     u2280:
  4203  001AEE  90D8               	bcf	status,0,c
  4204  001AF0  361B               	rlcf	___fldiv@rem^0,f,c
  4205  001AF2  361C               	rlcf	(___fldiv@rem+1)^0,f,c
  4206  001AF4  361D               	rlcf	(___fldiv@rem+2)^0,f,c
  4207  001AF6  361E               	rlcf	(___fldiv@rem+3)^0,f,c
  4208  001AF8  90D8               	bcf	status,0,c
  4209  001AFA  360F               	rlcf	___fldiv@b^0,f,c
  4210  001AFC  3610               	rlcf	(___fldiv@b+1)^0,f,c
  4211  001AFE  3611               	rlcf	(___fldiv@b+2)^0,f,c
  4212  001B00  3612               	rlcf	(___fldiv@b+3)^0,f,c
  4213  001B02  AE25               	btfss	(___fldiv@grs+3)^0,7,c
  4214  001B04  EF86  F00D         	goto	u2291
  4215  001B08  EF88  F00D         	goto	u2290
  4216  001B0C                     u2291:
  4217  001B0C  EF89  F00D         	goto	l765
  4218  001B10                     u2290:
  4219  001B10  800F               	bsf	___fldiv@b^0,0,c
  4220  001B12                     l765:
  4221  001B12  90D8               	bcf	status,0,c
  4222  001B14  3622               	rlcf	___fldiv@grs^0,f,c
  4223  001B16  3623               	rlcf	(___fldiv@grs+1)^0,f,c
  4224  001B18  3624               	rlcf	(___fldiv@grs+2)^0,f,c
  4225  001B1A  3625               	rlcf	(___fldiv@grs+3)^0,f,c
  4226  001B1C                     l2595:
  4227  001B1C  5013               	movf	___fldiv@a^0,w,c
  4228  001B1E  5C1B               	subwf	___fldiv@rem^0,w,c
  4229  001B20  5014               	movf	(___fldiv@a+1)^0,w,c
  4230  001B22  581C               	subwfb	(___fldiv@rem+1)^0,w,c
  4231  001B24  5015               	movf	(___fldiv@a+2)^0,w,c
  4232  001B26  581D               	subwfb	(___fldiv@rem+2)^0,w,c
  4233  001B28  5016               	movf	(___fldiv@a+3)^0,w,c
  4234  001B2A  581E               	subwfb	(___fldiv@rem+3)^0,w,c
  4235  001B2C  A0D8               	btfss	status,0,c
  4236  001B2E  EF9B  F00D         	goto	u2301
  4237  001B32  EF9D  F00D         	goto	u2300
  4238  001B36                     u2301:
  4239  001B36  EFA6  F00D         	goto	l2601
  4240  001B3A                     u2300:
  4241  001B3A  8C25               	bsf	(___fldiv@grs+3)^0,6,c
  4242  001B3C  5013               	movf	___fldiv@a^0,w,c
  4243  001B3E  5E1B               	subwf	___fldiv@rem^0,f,c
  4244  001B40  5014               	movf	(___fldiv@a+1)^0,w,c
  4245  001B42  5A1C               	subwfb	(___fldiv@rem+1)^0,f,c
  4246  001B44  5015               	movf	(___fldiv@a+2)^0,w,c
  4247  001B46  5A1D               	subwfb	(___fldiv@rem+2)^0,f,c
  4248  001B48  5016               	movf	(___fldiv@a+3)^0,w,c
  4249  001B4A  5A1E               	subwfb	(___fldiv@rem+3)^0,f,c
  4250  001B4C                     l2601:
  4251  001B4C  2A27               	incf	___fldiv@aexp^0,f,c
  4252  001B4E                     l762:
  4253  001B4E  0E19               	movlw	25
  4254  001B50  6427               	cpfsgt	___fldiv@aexp^0,c
  4255  001B52  EFAD  F00D         	goto	u2311
  4256  001B56  EFAF  F00D         	goto	u2310
  4257  001B5A                     u2311:
  4258  001B5A  EF6F  F00D         	goto	l2587
  4259  001B5E                     u2310:
  4260  001B5E  501B               	movf	___fldiv@rem^0,w,c
  4261  001B60  101C               	iorwf	(___fldiv@rem+1)^0,w,c
  4262  001B62  101D               	iorwf	(___fldiv@rem+2)^0,w,c
  4263  001B64  101E               	iorwf	(___fldiv@rem+3)^0,w,c
  4264  001B66  B4D8               	btfsc	status,2,c
  4265  001B68  EFB8  F00D         	goto	u2321
  4266  001B6C  EFBA  F00D         	goto	u2320
  4267  001B70                     u2321:
  4268  001B70  EFD2  F00D         	goto	l2613
  4269  001B74                     u2320:
  4270  001B74  8022               	bsf	___fldiv@grs^0,0,c
  4271  001B76  EFD2  F00D         	goto	l2613
  4272  001B7A                     l2607:
  4273  001B7A  90D8               	bcf	status,0,c
  4274  001B7C  360F               	rlcf	___fldiv@b^0,f,c
  4275  001B7E  3610               	rlcf	(___fldiv@b+1)^0,f,c
  4276  001B80  3611               	rlcf	(___fldiv@b+2)^0,f,c
  4277  001B82  3612               	rlcf	(___fldiv@b+3)^0,f,c
  4278  001B84  AE25               	btfss	(___fldiv@grs+3)^0,7,c
  4279  001B86  EFC7  F00D         	goto	u2331
  4280  001B8A  EFC9  F00D         	goto	u2330
  4281  001B8E                     u2331:
  4282  001B8E  EFCA  F00D         	goto	l771
  4283  001B92                     u2330:
  4284  001B92  800F               	bsf	___fldiv@b^0,0,c
  4285  001B94                     l771:
  4286  001B94  90D8               	bcf	status,0,c
  4287  001B96  3622               	rlcf	___fldiv@grs^0,f,c
  4288  001B98  3623               	rlcf	(___fldiv@grs+1)^0,f,c
  4289  001B9A  3624               	rlcf	(___fldiv@grs+2)^0,f,c
  4290  001B9C  3625               	rlcf	(___fldiv@grs+3)^0,f,c
  4291  001B9E  0620               	decf	___fldiv@new_exp^0,f,c
  4292  001BA0  A0D8               	btfss	status,0,c
  4293  001BA2  0621               	decf	(___fldiv@new_exp+1)^0,f,c
  4294  001BA4                     l2613:
  4295  001BA4  AE11               	btfss	(___fldiv@b+2)^0,7,c
  4296  001BA6  EFD7  F00D         	goto	u2341
  4297  001BAA  EFD9  F00D         	goto	u2340
  4298  001BAE                     u2341:
  4299  001BAE  EFBD  F00D         	goto	l2607
  4300  001BB2                     u2340:
  4301  001BB2  0E00               	movlw	0
  4302  001BB4  6E27               	movwf	___fldiv@aexp^0,c
  4303  001BB6  AE25               	btfss	(___fldiv@grs+3)^0,7,c
  4304  001BB8  EFE0  F00D         	goto	u2351
  4305  001BBC  EFE2  F00D         	goto	u2350
  4306  001BC0                     u2351:
  4307  001BC0  EF06  F00E         	goto	l773
  4308  001BC4                     u2350:
  4309  001BC4  0EFF               	movlw	255
  4310  001BC6  1422               	andwf	___fldiv@grs^0,w,c
  4311  001BC8  6E17               	movwf	??___fldiv^0,c
  4312  001BCA  0EFF               	movlw	255
  4313  001BCC  1423               	andwf	(___fldiv@grs+1)^0,w,c
  4314  001BCE  6E18               	movwf	(??___fldiv+1)^0,c
  4315  001BD0  0EFF               	movlw	255
  4316  001BD2  1424               	andwf	(___fldiv@grs+2)^0,w,c
  4317  001BD4  6E19               	movwf	(??___fldiv+2)^0,c
  4318  001BD6  0E7F               	movlw	127
  4319  001BD8  1425               	andwf	(___fldiv@grs+3)^0,w,c
  4320  001BDA  6E1A               	movwf	(??___fldiv+3)^0,c
  4321  001BDC  5017               	movf	??___fldiv^0,w,c
  4322  001BDE  1018               	iorwf	(??___fldiv+1)^0,w,c
  4323  001BE0  1019               	iorwf	(??___fldiv+2)^0,w,c
  4324  001BE2  101A               	iorwf	(??___fldiv+3)^0,w,c
  4325  001BE4  B4D8               	btfsc	status,2,c
  4326  001BE6  EFF7  F00D         	goto	u2361
  4327  001BEA  EFF9  F00D         	goto	u2360
  4328  001BEE                     u2361:
  4329  001BEE  EFFD  F00D         	goto	l774
  4330  001BF2                     u2360:
  4331  001BF2                     l2621:
  4332  001BF2  0E01               	movlw	1
  4333  001BF4  6E27               	movwf	___fldiv@aexp^0,c
  4334  001BF6  EF06  F00E         	goto	l773
  4335  001BFA                     l774:
  4336  001BFA  A00F               	btfss	___fldiv@b^0,0,c
  4337  001BFC  EF02  F00E         	goto	u2371
  4338  001C00  EF04  F00E         	goto	u2370
  4339  001C04                     u2371:
  4340  001C04  EF06  F00E         	goto	l773
  4341  001C08                     u2370:
  4342  001C08  EFF9  F00D         	goto	l2621
  4343  001C0C                     l773:
  4344  001C0C  5027               	movf	___fldiv@aexp^0,w,c
  4345  001C0E  B4D8               	btfsc	status,2,c
  4346  001C10  EF0C  F00E         	goto	u2381
  4347  001C14  EF0E  F00E         	goto	u2380
  4348  001C18                     u2381:
  4349  001C18  EF32  F00E         	goto	l2633
  4350  001C1C                     u2380:
  4351  001C1C  0E01               	movlw	1
  4352  001C1E  260F               	addwf	___fldiv@b^0,f,c
  4353  001C20  0E00               	movlw	0
  4354  001C22  2210               	addwfc	(___fldiv@b+1)^0,f,c
  4355  001C24  2211               	addwfc	(___fldiv@b+2)^0,f,c
  4356  001C26  2212               	addwfc	(___fldiv@b+3)^0,f,c
  4357  001C28  A012               	btfss	(___fldiv@b+3)^0,0,c
  4358  001C2A  EF19  F00E         	goto	u2391
  4359  001C2E  EF1B  F00E         	goto	u2390
  4360  001C32                     u2391:
  4361  001C32  EF32  F00E         	goto	l2633
  4362  001C36                     u2390:
  4363  001C36  C00F  F017         	movff	___fldiv@b,??___fldiv
  4364  001C3A  C010  F018         	movff	___fldiv@b+1,??___fldiv+1
  4365  001C3E  C011  F019         	movff	___fldiv@b+2,??___fldiv+2
  4366  001C42  C012  F01A         	movff	___fldiv@b+3,??___fldiv+3
  4367  001C46  341A               	rlcf	(??___fldiv+3)^0,w,c
  4368  001C48  321A               	rrcf	(??___fldiv+3)^0,f,c
  4369  001C4A  3219               	rrcf	(??___fldiv+2)^0,f,c
  4370  001C4C  3218               	rrcf	(??___fldiv+1)^0,f,c
  4371  001C4E  3217               	rrcf	??___fldiv^0,f,c
  4372  001C50  C017  F00F         	movff	??___fldiv,___fldiv@b
  4373  001C54  C018  F010         	movff	??___fldiv+1,___fldiv@b+1
  4374  001C58  C019  F011         	movff	??___fldiv+2,___fldiv@b+2
  4375  001C5C  C01A  F012         	movff	??___fldiv+3,___fldiv@b+3
  4376  001C60  4A20               	infsnz	___fldiv@new_exp^0,f,c
  4377  001C62  2A21               	incf	(___fldiv@new_exp+1)^0,f,c
  4378  001C64                     l2633:
  4379  001C64  BE21               	btfsc	(___fldiv@new_exp+1)^0,7,c
  4380  001C66  EF3D  F00E         	goto	u2401
  4381  001C6A  5021               	movf	(___fldiv@new_exp+1)^0,w,c
  4382  001C6C  E108               	bnz	u2400
  4383  001C6E  2820               	incf	___fldiv@new_exp^0,w,c
  4384  001C70  A0D8               	btfss	status,0,c
  4385  001C72  EF3D  F00E         	goto	u2401
  4386  001C76  EF3F  F00E         	goto	u2400
  4387  001C7A                     u2401:
  4388  001C7A  EF4A  F00E         	goto	l2637
  4389  001C7E                     u2400:
  4390  001C7E  0E00               	movlw	0
  4391  001C80  6E21               	movwf	(___fldiv@new_exp+1)^0,c
  4392  001C82  6820               	setf	___fldiv@new_exp^0,c
  4393  001C84  0E00               	movlw	0
  4394  001C86  6E0F               	movwf	___fldiv@b^0,c
  4395  001C88  0E00               	movlw	0
  4396  001C8A  6E10               	movwf	(___fldiv@b+1)^0,c
  4397  001C8C  0E00               	movlw	0
  4398  001C8E  6E11               	movwf	(___fldiv@b+2)^0,c
  4399  001C90  0E00               	movlw	0
  4400  001C92  6E12               	movwf	(___fldiv@b+3)^0,c
  4401  001C94                     l2637:
  4402  001C94  BE21               	btfsc	(___fldiv@new_exp+1)^0,7,c
  4403  001C96  EF57  F00E         	goto	u2410
  4404  001C9A  5021               	movf	(___fldiv@new_exp+1)^0,w,c
  4405  001C9C  E106               	bnz	u2411
  4406  001C9E  0420               	decf	___fldiv@new_exp^0,w,c
  4407  001CA0  B0D8               	btfsc	status,0,c
  4408  001CA2  EF55  F00E         	goto	u2411
  4409  001CA6  EF57  F00E         	goto	u2410
  4410  001CAA                     u2411:
  4411  001CAA  EF65  F00E         	goto	l2641
  4412  001CAE                     u2410:
  4413  001CAE  0E00               	movlw	0
  4414  001CB0  6E21               	movwf	(___fldiv@new_exp+1)^0,c
  4415  001CB2  0E00               	movlw	0
  4416  001CB4  6E20               	movwf	___fldiv@new_exp^0,c
  4417  001CB6  0E00               	movlw	0
  4418  001CB8  6E0F               	movwf	___fldiv@b^0,c
  4419  001CBA  0E00               	movlw	0
  4420  001CBC  6E10               	movwf	(___fldiv@b+1)^0,c
  4421  001CBE  0E00               	movlw	0
  4422  001CC0  6E11               	movwf	(___fldiv@b+2)^0,c
  4423  001CC2  0E00               	movlw	0
  4424  001CC4  6E12               	movwf	(___fldiv@b+3)^0,c
  4425  001CC6  0E00               	movlw	0
  4426  001CC8  6E1F               	movwf	___fldiv@sign^0,c
  4427  001CCA                     l2641:
  4428  001CCA  C020  F026         	movff	___fldiv@new_exp,___fldiv@bexp
  4429  001CCE  A026               	btfss	___fldiv@bexp^0,0,c
  4430  001CD0  EF6C  F00E         	goto	u2421
  4431  001CD4  EF6E  F00E         	goto	u2420
  4432  001CD8                     u2421:
  4433  001CD8  EF71  F00E         	goto	l2647
  4434  001CDC                     u2420:
  4435  001CDC  8E11               	bsf	(___fldiv@b+2)^0,7,c
  4436  001CDE  EF72  F00E         	goto	l2649
  4437  001CE2                     l2647:
  4438  001CE2  9E11               	bcf	(___fldiv@b+2)^0,7,c
  4439  001CE4                     l2649:
  4440  001CE4  90D8               	bcf	status,0,c
  4441  001CE6  3026               	rrcf	___fldiv@bexp^0,w,c
  4442  001CE8  6E12               	movwf	(___fldiv@b+3)^0,c
  4443  001CEA  EF28  F00D         	goto	l2563
  4444  001CEE                     l760:
  4445  001CEE  0012               	return		;funcret
  4446  001CF0                     __end_of___fldiv:
  4447                           	opt callstack 0
  4448                           
  4449 ;; *************** function _SYSTEM_Initialize *****************
  4450 ;; Defined at:
  4451 ;;		line 50 in file "mcc_generated_files/mcc.c"
  4452 ;; Parameters:    Size  Location     Type
  4453 ;;		None
  4454 ;; Auto vars:     Size  Location     Type
  4455 ;;		None
  4456 ;; Return value:  Size  Location     Type
  4457 ;;                  1    wreg      void 
  4458 ;; Registers used:
  4459 ;;		wreg, status,2, status,0, cstack
  4460 ;; Tracked objects:
  4461 ;;		On entry : 0/0
  4462 ;;		On exit  : 0/0
  4463 ;;		Unchanged: 0/0
  4464 ;; Data sizes:     COMRAM   BANK0   BANK1   BANK2   BANK3   BANK4   BANK5
  4465 ;;      Params:         0       0       0       0       0       0       0
  4466 ;;      Locals:         0       0       0       0       0       0       0
  4467 ;;      Temps:          0       0       0       0       0       0       0
  4468 ;;      Totals:         0       0       0       0       0       0       0
  4469 ;;Total ram usage:        0 bytes
  4470 ;; Hardware stack levels used:    1
  4471 ;; Hardware stack levels required when called:    2
  4472 ;; This function calls:
  4473 ;;		_EUSART2_Initialize
  4474 ;;		_OSCILLATOR_Initialize
  4475 ;;		_PIN_MANAGER_Initialize
  4476 ;; This function is called by:
  4477 ;;		_main
  4478 ;; This function uses a non-reentrant model
  4479 ;;
  4480                           
  4481                           	psect	text13
  4482  002638                     __ptext13:
  4483                           	opt callstack 0
  4484  002638                     _SYSTEM_Initialize:
  4485                           	opt callstack 28
  4486  002638                     
  4487                           ;mcc_generated_files/mcc.c: 53:     PIN_MANAGER_Initialize();
  4488  002638  EC85  F012         	call	_PIN_MANAGER_Initialize	;wreg free
  4489                           
  4490                           ;mcc_generated_files/mcc.c: 54:     OSCILLATOR_Initialize();
  4491  00263C  EC23  F013         	call	_OSCILLATOR_Initialize	;wreg free
  4492  002640                     
  4493                           ;mcc_generated_files/mcc.c: 55:     EUSART2_Initialize();
  4494  002640  ECA5  F012         	call	_EUSART2_Initialize	;wreg free
  4495  002644  0012               	return		;funcret
  4496  002646                     __end_of_SYSTEM_Initialize:
  4497                           	opt callstack 0
  4498                           
  4499 ;; *************** function _PIN_MANAGER_Initialize *****************
  4500 ;; Defined at:
  4501 ;;		line 55 in file "mcc_generated_files/pin_manager.c"
  4502 ;; Parameters:    Size  Location     Type
  4503 ;;		None
  4504 ;; Auto vars:     Size  Location     Type
  4505 ;;		None
  4506 ;; Return value:  Size  Location     Type
  4507 ;;                  1    wreg      void 
  4508 ;; Registers used:
  4509 ;;		wreg, status,2
  4510 ;; Tracked objects:
  4511 ;;		On entry : 0/0
  4512 ;;		On exit  : 0/0
  4513 ;;		Unchanged: 0/0
  4514 ;; Data sizes:     COMRAM   BANK0   BANK1   BANK2   BANK3   BANK4   BANK5
  4515 ;;      Params:         0       0       0       0       0       0       0
  4516 ;;      Locals:         0       0       0       0       0       0       0
  4517 ;;      Temps:          0       0       0       0       0       0       0
  4518 ;;      Totals:         0       0       0       0       0       0       0
  4519 ;;Total ram usage:        0 bytes
  4520 ;; Hardware stack levels used:    1
  4521 ;; This function calls:
  4522 ;;		Nothing
  4523 ;; This function is called by:
  4524 ;;		_SYSTEM_Initialize
  4525 ;; This function uses a non-reentrant model
  4526 ;;
  4527                           
  4528                           	psect	text14
  4529  00250A                     __ptext14:
  4530                           	opt callstack 0
  4531  00250A                     _PIN_MANAGER_Initialize:
  4532                           	opt callstack 29
  4533  00250A                     
  4534                           ;mcc_generated_files/pin_manager.c: 60:     LATE = 0x00;
  4535  00250A  0E00               	movlw	0
  4536  00250C  6E8D               	movwf	141,c	;volatile
  4537                           
  4538                           ;mcc_generated_files/pin_manager.c: 61:     LATD = 0x00;
  4539  00250E  0E00               	movlw	0
  4540  002510  6E8C               	movwf	140,c	;volatile
  4541                           
  4542                           ;mcc_generated_files/pin_manager.c: 62:     LATA = 0x00;
  4543  002512  0E00               	movlw	0
  4544  002514  6E89               	movwf	137,c	;volatile
  4545                           
  4546                           ;mcc_generated_files/pin_manager.c: 63:     LATB = 0x00;
  4547  002516  0E00               	movlw	0
  4548  002518  6E8A               	movwf	138,c	;volatile
  4549                           
  4550                           ;mcc_generated_files/pin_manager.c: 64:     LATC = 0x00;
  4551  00251A  0E00               	movlw	0
  4552  00251C  6E8B               	movwf	139,c	;volatile
  4553                           
  4554                           ;mcc_generated_files/pin_manager.c: 69:     TRISE = 0x07;
  4555  00251E  0E07               	movlw	7
  4556  002520  6E96               	movwf	150,c	;volatile
  4557  002522                     
  4558                           ;mcc_generated_files/pin_manager.c: 70:     TRISA = 0xFF;
  4559  002522  6892               	setf	146,c	;volatile
  4560  002524                     
  4561                           ;mcc_generated_files/pin_manager.c: 71:     TRISB = 0xFF;
  4562  002524  6893               	setf	147,c	;volatile
  4563  002526                     
  4564                           ;mcc_generated_files/pin_manager.c: 72:     TRISC = 0xFF;
  4565  002526  6894               	setf	148,c	;volatile
  4566                           
  4567                           ;mcc_generated_files/pin_manager.c: 73:     TRISD = 0xBB;
  4568  002528  0EBB               	movlw	187
  4569  00252A  6E95               	movwf	149,c	;volatile
  4570                           
  4571                           ;mcc_generated_files/pin_manager.c: 78:     ANSELD = 0x3B;
  4572  00252C  0E3B               	movlw	59
  4573  00252E  010F               	movlb	15	; () banked
  4574  002530  6F3B               	movwf	59,b	;volatile
  4575                           
  4576                           ;mcc_generated_files/pin_manager.c: 79:     ANSELC = 0xFC;
  4577  002532  0EFC               	movlw	252
  4578  002534  6F3A               	movwf	58,b	;volatile
  4579                           
  4580                           ;mcc_generated_files/pin_manager.c: 80:     ANSELB = 0x3F;
  4581  002536  0E3F               	movlw	63
  4582  002538  6F39               	movwf	57,b	;volatile
  4583                           
  4584                           ;mcc_generated_files/pin_manager.c: 81:     ANSELE = 0x07;
  4585  00253A  0E07               	movlw	7
  4586  00253C  6F3C               	movwf	60,b	;volatile
  4587                           
  4588                           ;mcc_generated_files/pin_manager.c: 82:     ANSELA = 0x2F;
  4589  00253E  0E2F               	movlw	47
  4590  002540  6F38               	movwf	56,b	;volatile
  4591                           
  4592                           ;mcc_generated_files/pin_manager.c: 87:     WPUB = 0x00;
  4593  002542  0E00               	movlw	0
  4594  002544  6E61               	movwf	97,c	;volatile
  4595  002546                     
  4596                           ; BSR set to: 15
  4597                           ;mcc_generated_files/pin_manager.c: 88:     INTCON2bits.nRBPU = 1;
  4598  002546  8EF1               	bsf	241,7,c	;volatile
  4599  002548                     
  4600                           ; BSR set to: 15
  4601  002548  0012               	return		;funcret
  4602  00254A                     __end_of_PIN_MANAGER_Initialize:
  4603                           	opt callstack 0
  4604                           
  4605 ;; *************** function _OSCILLATOR_Initialize *****************
  4606 ;; Defined at:
  4607 ;;		line 58 in file "mcc_generated_files/mcc.c"
  4608 ;; Parameters:    Size  Location     Type
  4609 ;;		None
  4610 ;; Auto vars:     Size  Location     Type
  4611 ;;		None
  4612 ;; Return value:  Size  Location     Type
  4613 ;;                  1    wreg      void 
  4614 ;; Registers used:
  4615 ;;		wreg, status,2
  4616 ;; Tracked objects:
  4617 ;;		On entry : 0/0
  4618 ;;		On exit  : 0/0
  4619 ;;		Unchanged: 0/0
  4620 ;; Data sizes:     COMRAM   BANK0   BANK1   BANK2   BANK3   BANK4   BANK5
  4621 ;;      Params:         0       0       0       0       0       0       0
  4622 ;;      Locals:         0       0       0       0       0       0       0
  4623 ;;      Temps:          0       0       0       0       0       0       0
  4624 ;;      Totals:         0       0       0       0       0       0       0
  4625 ;;Total ram usage:        0 bytes
  4626 ;; Hardware stack levels used:    1
  4627 ;; This function calls:
  4628 ;;		Nothing
  4629 ;; This function is called by:
  4630 ;;		_SYSTEM_Initialize
  4631 ;; This function uses a non-reentrant model
  4632 ;;
  4633                           
  4634                           	psect	text15
  4635  002646                     __ptext15:
  4636                           	opt callstack 0
  4637  002646                     _OSCILLATOR_Initialize:
  4638                           	opt callstack 29
  4639  002646                     
  4640                           ;mcc_generated_files/mcc.c: 61:     OSCCON = 0x30;
  4641  002646  0E30               	movlw	48
  4642  002648  6ED3               	movwf	211,c	;volatile
  4643                           
  4644                           ;mcc_generated_files/mcc.c: 63:     OSCCON2 = 0x04;
  4645  00264A  0E04               	movlw	4
  4646  00264C  6ED2               	movwf	210,c	;volatile
  4647                           
  4648                           ;mcc_generated_files/mcc.c: 65:     OSCTUNE = 0x00;
  4649  00264E  0E00               	movlw	0
  4650  002650  6E9B               	movwf	155,c	;volatile
  4651  002652  0012               	return		;funcret
  4652  002654                     __end_of_OSCILLATOR_Initialize:
  4653                           	opt callstack 0
  4654                           
  4655 ;; *************** function _EUSART2_Initialize *****************
  4656 ;; Defined at:
  4657 ;;		line 66 in file "mcc_generated_files/eusart2.c"
  4658 ;; Parameters:    Size  Location     Type
  4659 ;;		None
  4660 ;; Auto vars:     Size  Location     Type
  4661 ;;		None
  4662 ;; Return value:  Size  Location     Type
  4663 ;;                  1    wreg      void 
  4664 ;; Registers used:
  4665 ;;		wreg, status,2, status,0, cstack
  4666 ;; Tracked objects:
  4667 ;;		On entry : 0/0
  4668 ;;		On exit  : 0/0
  4669 ;;		Unchanged: 0/0
  4670 ;; Data sizes:     COMRAM   BANK0   BANK1   BANK2   BANK3   BANK4   BANK5
  4671 ;;      Params:         0       0       0       0       0       0       0
  4672 ;;      Locals:         0       0       0       0       0       0       0
  4673 ;;      Temps:          0       0       0       0       0       0       0
  4674 ;;      Totals:         0       0       0       0       0       0       0
  4675 ;;Total ram usage:        0 bytes
  4676 ;; Hardware stack levels used:    1
  4677 ;; Hardware stack levels required when called:    1
  4678 ;; This function calls:
  4679 ;;		_EUSART2_SetErrorHandler
  4680 ;;		_EUSART2_SetFramingErrorHandler
  4681 ;;		_EUSART2_SetOverrunErrorHandler
  4682 ;; This function is called by:
  4683 ;;		_SYSTEM_Initialize
  4684 ;; This function uses a non-reentrant model
  4685 ;;
  4686                           
  4687                           	psect	text16
  4688  00254A                     __ptext16:
  4689                           	opt callstack 0
  4690  00254A                     _EUSART2_Initialize:
  4691                           	opt callstack 28
  4692  00254A                     
  4693                           ;mcc_generated_files/eusart2.c: 71:     BAUDCON2 = 0x08;
  4694  00254A  0E08               	movlw	8
  4695  00254C  6E70               	movwf	112,c	;volatile
  4696                           
  4697                           ;mcc_generated_files/eusart2.c: 74:     RCSTA2 = 0x90;
  4698  00254E  0E90               	movlw	144
  4699  002550  6E71               	movwf	113,c	;volatile
  4700                           
  4701                           ;mcc_generated_files/eusart2.c: 77:     TXSTA2 = 0x24;
  4702  002552  0E24               	movlw	36
  4703  002554  6E72               	movwf	114,c	;volatile
  4704                           
  4705                           ;mcc_generated_files/eusart2.c: 80:     SPBRG2 = 0x0C;
  4706  002556  0E0C               	movlw	12
  4707  002558  6E75               	movwf	117,c	;volatile
  4708                           
  4709                           ;mcc_generated_files/eusart2.c: 83:     SPBRGH2 = 0x00;
  4710  00255A  0E00               	movlw	0
  4711  00255C  6E76               	movwf	118,c	;volatile
  4712  00255E                     
  4713                           ;mcc_generated_files/eusart2.c: 86:     EUSART2_SetFramingErrorHandler(EUSART2_DefaultFr
      +                          amingErrorHandler);
  4714  00255E  0E00               	movlw	0
  4715  002560  6E01               	movwf	EUSART2_SetFramingErrorHandler@interruptHandler^0,c
  4716  002562  0E00               	movlw	0
  4717  002564  6E02               	movwf	(EUSART2_SetFramingErrorHandler@interruptHandler+1)^0,c
  4718  002566  EC2F  F013         	call	_EUSART2_SetFramingErrorHandler	;wreg free
  4719  00256A                     
  4720                           ;mcc_generated_files/eusart2.c: 87:     EUSART2_SetOverrunErrorHandler(EUSART2_DefaultOv
      +                          errunErrorHandler);
  4721  00256A  0E00               	movlw	0
  4722  00256C  6E01               	movwf	EUSART2_SetOverrunErrorHandler@interruptHandler^0,c
  4723  00256E  0E00               	movlw	0
  4724  002570  6E02               	movwf	(EUSART2_SetOverrunErrorHandler@interruptHandler+1)^0,c
  4725  002572  EC2A  F013         	call	_EUSART2_SetOverrunErrorHandler	;wreg free
  4726  002576                     
  4727                           ;mcc_generated_files/eusart2.c: 88:     EUSART2_SetErrorHandler(EUSART2_DefaultErrorHand
      +                          ler);
  4728  002576  0E00               	movlw	0
  4729  002578  6E01               	movwf	EUSART2_SetErrorHandler@interruptHandler^0,c
  4730  00257A  0E00               	movlw	0
  4731  00257C  6E02               	movwf	(EUSART2_SetErrorHandler@interruptHandler+1)^0,c
  4732  00257E  EC34  F013         	call	_EUSART2_SetErrorHandler	;wreg free
  4733  002582                     
  4734                           ;mcc_generated_files/eusart2.c: 90:     eusart2RxLastError.status = 0;
  4735  002582  0E00               	movlw	0
  4736  002584  6E5F               	movwf	_eusart2RxLastError^0,c	;volatile
  4737  002586  0012               	return		;funcret
  4738  002588                     __end_of_EUSART2_Initialize:
  4739                           	opt callstack 0
  4740                           
  4741 ;; *************** function _EUSART2_SetOverrunErrorHandler *****************
  4742 ;; Defined at:
  4743 ;;		line 170 in file "mcc_generated_files/eusart2.c"
  4744 ;; Parameters:    Size  Location     Type
  4745 ;;  interruptHan    2    0[COMRAM] PTR FTN()void 
  4746 ;;		 -> EUSART2_DefaultOverrunErrorHandler(1), 
  4747 ;; Auto vars:     Size  Location     Type
  4748 ;;		None
  4749 ;; Return value:  Size  Location     Type
  4750 ;;                  1    wreg      void 
  4751 ;; Registers used:
  4752 ;;		wreg, status,2, status,0
  4753 ;; Tracked objects:
  4754 ;;		On entry : 0/0
  4755 ;;		On exit  : 0/0
  4756 ;;		Unchanged: 0/0
  4757 ;; Data sizes:     COMRAM   BANK0   BANK1   BANK2   BANK3   BANK4   BANK5
  4758 ;;      Params:         2       0       0       0       0       0       0
  4759 ;;      Locals:         0       0       0       0       0       0       0
  4760 ;;      Temps:          0       0       0       0       0       0       0
  4761 ;;      Totals:         2       0       0       0       0       0       0
  4762 ;;Total ram usage:        2 bytes
  4763 ;; Hardware stack levels used:    1
  4764 ;; This function calls:
  4765 ;;		Nothing
  4766 ;; This function is called by:
  4767 ;;		_EUSART2_Initialize
  4768 ;; This function uses a non-reentrant model
  4769 ;;
  4770                           
  4771                           	psect	text17
  4772  002654                     __ptext17:
  4773                           	opt callstack 0
  4774  002654                     _EUSART2_SetOverrunErrorHandler:
  4775                           	opt callstack 28
  4776  002654                     
  4777                           ;mcc_generated_files/eusart2.c: 171:     EUSART2_OverrunErrorHandler = interruptHandler;
  4778  002654  C001  F0D9         	movff	EUSART2_SetOverrunErrorHandler@interruptHandler,_EUSART2_OverrunErrorHandler
  4779  002658  C002  F0DA         	movff	EUSART2_SetOverrunErrorHandler@interruptHandler+1,_EUSART2_OverrunErrorHandler+1
  4780  00265C  0012               	return		;funcret
  4781  00265E                     __end_of_EUSART2_SetOverrunErrorHandler:
  4782                           	opt callstack 0
  4783                           
  4784 ;; *************** function _EUSART2_SetFramingErrorHandler *****************
  4785 ;; Defined at:
  4786 ;;		line 166 in file "mcc_generated_files/eusart2.c"
  4787 ;; Parameters:    Size  Location     Type
  4788 ;;  interruptHan    2    0[COMRAM] PTR FTN()void 
  4789 ;;		 -> EUSART2_DefaultFramingErrorHandler(1), 
  4790 ;; Auto vars:     Size  Location     Type
  4791 ;;		None
  4792 ;; Return value:  Size  Location     Type
  4793 ;;                  1    wreg      void 
  4794 ;; Registers used:
  4795 ;;		wreg, status,2, status,0
  4796 ;; Tracked objects:
  4797 ;;		On entry : 0/0
  4798 ;;		On exit  : 0/0
  4799 ;;		Unchanged: 0/0
  4800 ;; Data sizes:     COMRAM   BANK0   BANK1   BANK2   BANK3   BANK4   BANK5
  4801 ;;      Params:         2       0       0       0       0       0       0
  4802 ;;      Locals:         0       0       0       0       0       0       0
  4803 ;;      Temps:          0       0       0       0       0       0       0
  4804 ;;      Totals:         2       0       0       0       0       0       0
  4805 ;;Total ram usage:        2 bytes
  4806 ;; Hardware stack levels used:    1
  4807 ;; This function calls:
  4808 ;;		Nothing
  4809 ;; This function is called by:
  4810 ;;		_EUSART2_Initialize
  4811 ;; This function uses a non-reentrant model
  4812 ;;
  4813                           
  4814                           	psect	text18
  4815  00265E                     __ptext18:
  4816                           	opt callstack 0
  4817  00265E                     _EUSART2_SetFramingErrorHandler:
  4818                           	opt callstack 28
  4819  00265E                     
  4820                           ;mcc_generated_files/eusart2.c: 167:     EUSART2_FramingErrorHandler = interruptHandler;
  4821  00265E  C001  F0DB         	movff	EUSART2_SetFramingErrorHandler@interruptHandler,_EUSART2_FramingErrorHandler
  4822  002662  C002  F0DC         	movff	EUSART2_SetFramingErrorHandler@interruptHandler+1,_EUSART2_FramingErrorHandler+1
  4823  002666  0012               	return		;funcret
  4824  002668                     __end_of_EUSART2_SetFramingErrorHandler:
  4825                           	opt callstack 0
  4826                           
  4827 ;; *************** function _EUSART2_SetErrorHandler *****************
  4828 ;; Defined at:
  4829 ;;		line 174 in file "mcc_generated_files/eusart2.c"
  4830 ;; Parameters:    Size  Location     Type
  4831 ;;  interruptHan    2    0[COMRAM] PTR FTN()void 
  4832 ;;		 -> EUSART2_DefaultErrorHandler(1), 
  4833 ;; Auto vars:     Size  Location     Type
  4834 ;;		None
  4835 ;; Return value:  Size  Location     Type
  4836 ;;                  1    wreg      void 
  4837 ;; Registers used:
  4838 ;;		wreg, status,2, status,0
  4839 ;; Tracked objects:
  4840 ;;		On entry : 0/0
  4841 ;;		On exit  : 0/0
  4842 ;;		Unchanged: 0/0
  4843 ;; Data sizes:     COMRAM   BANK0   BANK1   BANK2   BANK3   BANK4   BANK5
  4844 ;;      Params:         2       0       0       0       0       0       0
  4845 ;;      Locals:         0       0       0       0       0       0       0
  4846 ;;      Temps:          0       0       0       0       0       0       0
  4847 ;;      Totals:         2       0       0       0       0       0       0
  4848 ;;Total ram usage:        2 bytes
  4849 ;; Hardware stack levels used:    1
  4850 ;; This function calls:
  4851 ;;		Nothing
  4852 ;; This function is called by:
  4853 ;;		_EUSART2_Initialize
  4854 ;; This function uses a non-reentrant model
  4855 ;;
  4856                           
  4857                           	psect	text19
  4858  002668                     __ptext19:
  4859                           	opt callstack 0
  4860  002668                     _EUSART2_SetErrorHandler:
  4861                           	opt callstack 28
  4862  002668                     
  4863                           ;mcc_generated_files/eusart2.c: 175:     EUSART2_ErrorHandler = interruptHandler;
  4864  002668  C001  F0D7         	movff	EUSART2_SetErrorHandler@interruptHandler,_EUSART2_ErrorHandler
  4865  00266C  C002  F0D8         	movff	EUSART2_SetErrorHandler@interruptHandler+1,_EUSART2_ErrorHandler+1
  4866  002670  0012               	return		;funcret
  4867  002672                     __end_of_EUSART2_SetErrorHandler:
  4868                           	opt callstack 0
  4869                           
  4870 ;; *************** function _EUSART2_is_tx_done *****************
  4871 ;; Defined at:
  4872 ;;		line 104 in file "mcc_generated_files/eusart2.c"
  4873 ;; Parameters:    Size  Location     Type
  4874 ;;		None
  4875 ;; Auto vars:     Size  Location     Type
  4876 ;;		None
  4877 ;; Return value:  Size  Location     Type
  4878 ;;                  1    wreg      _Bool 
  4879 ;; Registers used:
  4880 ;;		wreg
  4881 ;; Tracked objects:
  4882 ;;		On entry : 0/0
  4883 ;;		On exit  : 0/0
  4884 ;;		Unchanged: 0/0
  4885 ;; Data sizes:     COMRAM   BANK0   BANK1   BANK2   BANK3   BANK4   BANK5
  4886 ;;      Params:         0       0       0       0       0       0       0
  4887 ;;      Locals:         0       0       0       0       0       0       0
  4888 ;;      Temps:          0       0       0       0       0       0       0
  4889 ;;      Totals:         0       0       0       0       0       0       0
  4890 ;;Total ram usage:        0 bytes
  4891 ;; Hardware stack levels used:    1
  4892 ;; This function calls:
  4893 ;;		Nothing
  4894 ;; This function is called by:
  4895 ;;		_main
  4896 ;; This function uses a non-reentrant model
  4897 ;;
  4898                           
  4899                           	psect	text20
  4900  002624                     __ptext20:
  4901                           	opt callstack 0
  4902  002624                     _EUSART2_is_tx_done:
  4903                           	opt callstack 30
  4904  002624                     
  4905                           ;mcc_generated_files/eusart2.c: 106:     return TXSTA2bits.TRMT;
  4906  002624  B272               	btfsc	114,1,c	;volatile
  4907  002626  EF17  F013         	goto	u2061
  4908  00262A  EF1A  F013         	goto	u2060
  4909  00262E                     u2061:
  4910  00262E  0E01               	movlw	1
  4911  002630  EF1B  F013         	goto	u2066
  4912  002634                     u2060:
  4913  002634  0E00               	movlw	0
  4914  002636                     u2066:
  4915  002636  0012               	return		;funcret
  4916  002638                     __end_of_EUSART2_is_tx_done:
  4917                           	opt callstack 0
  4918                           
  4919 ;; *************** function _EUSART2_Write *****************
  4920 ;; Defined at:
  4921 ;;		line 132 in file "mcc_generated_files/eusart2.c"
  4922 ;; Parameters:    Size  Location     Type
  4923 ;;  txData          1    wreg     unsigned char 
  4924 ;; Auto vars:     Size  Location     Type
  4925 ;;  txData          1    0[COMRAM] unsigned char 
  4926 ;; Return value:  Size  Location     Type
  4927 ;;                  1    wreg      void 
  4928 ;; Registers used:
  4929 ;;		wreg
  4930 ;; Tracked objects:
  4931 ;;		On entry : 0/0
  4932 ;;		On exit  : 0/0
  4933 ;;		Unchanged: 0/0
  4934 ;; Data sizes:     COMRAM   BANK0   BANK1   BANK2   BANK3   BANK4   BANK5
  4935 ;;      Params:         0       0       0       0       0       0       0
  4936 ;;      Locals:         1       0       0       0       0       0       0
  4937 ;;      Temps:          0       0       0       0       0       0       0
  4938 ;;      Totals:         1       0       0       0       0       0       0
  4939 ;;Total ram usage:        1 bytes
  4940 ;; Hardware stack levels used:    1
  4941 ;; This function calls:
  4942 ;;		Nothing
  4943 ;; This function is called by:
  4944 ;;		_main
  4945 ;;		_putch
  4946 ;; This function uses a non-reentrant model
  4947 ;;
  4948                           
  4949                           	psect	text21
  4950  00260E                     __ptext21:
  4951                           	opt callstack 0
  4952  00260E                     _EUSART2_Write:
  4953                           	opt callstack 30
  4954                           
  4955                           ;incstack = 0
  4956                           ;EUSART2_Write@txData stored from wreg
  4957  00260E  6E01               	movwf	EUSART2_Write@txData^0,c
  4958  002610                     l67:
  4959                           
  4960                           ;mcc_generated_files/eusart2.c: 134:     while(0 == PIR3bits.TX2IF)
  4961  002610  A8A4               	btfss	164,4,c	;volatile
  4962  002612  EF0D  F013         	goto	u2071
  4963  002616  EF0F  F013         	goto	u2070
  4964  00261A                     u2071:
  4965  00261A  EF08  F013         	goto	l67
  4966  00261E                     u2070:
  4967  00261E                     
  4968                           ;mcc_generated_files/eusart2.c: 138:     TXREG2 = txData;
  4969  00261E  C001  FF73         	movff	EUSART2_Write@txData,3955	;volatile
  4970  002622  0012               	return		;funcret
  4971  002624                     __end_of_EUSART2_Write:
  4972                           	opt callstack 0
  4973                           
  4974                           	psect	rparam
  4975  0000                     tosu	equ	0xFFF
  4976                           tosh	equ	0xFFE
  4977                           tosl	equ	0xFFD
  4978                           stkptr	equ	0xFFC
  4979                           pclatu	equ	0xFFB
  4980                           pclath	equ	0xFFA
  4981                           pcl	equ	0xFF9
  4982                           tblptru	equ	0xFF8
  4983                           tblptrh	equ	0xFF7
  4984                           tblptrl	equ	0xFF6
  4985                           tablat	equ	0xFF5
  4986                           prodh	equ	0xFF4
  4987                           prodl	equ	0xFF3
  4988                           indf0	equ	0xFEF
  4989                           postinc0	equ	0xFEE
  4990                           postdec0	equ	0xFED
  4991                           preinc0	equ	0xFEC
  4992                           plusw0	equ	0xFEB
  4993                           fsr0h	equ	0xFEA
  4994                           fsr0l	equ	0xFE9
  4995                           wreg	equ	0xFE8
  4996                           indf1	equ	0xFE7
  4997                           postinc1	equ	0xFE6
  4998                           postdec1	equ	0xFE5
  4999                           preinc1	equ	0xFE4
  5000                           plusw1	equ	0xFE3
  5001                           fsr1h	equ	0xFE2
  5002                           fsr1l	equ	0xFE1
  5003                           bsr	equ	0xFE0
  5004                           indf2	equ	0xFDF
  5005                           postinc2	equ	0xFDE
  5006                           postdec2	equ	0xFDD
  5007                           preinc2	equ	0xFDC
  5008                           plusw2	equ	0xFDB
  5009                           fsr2h	equ	0xFDA
  5010                           fsr2l	equ	0xFD9
  5011                           status	equ	0xFD8


Data Sizes:
    Strings     0
    Constant    68
    Data        0
    BSS         9
    Persistent  6
    Stack       0

Auto Spaces:
    Space          Size  Autos    Used
    COMRAM           95     94      95
    BANK0           160    111     125
    BANK1           256      0       0
    BANK2           256      0       0
    BANK3           256      0       0
    BANK4           256      0       0
    BANK5           256      0       0

Pointer List with Targets:

    __rem_pio2f@y	PTR  size(2) Largest target is 4
		 -> cosf@y(BANK0[4]), 

    EUSART2_SetErrorHandler@interruptHandler	PTR FTN()void  size(2) Largest target is 1
		 -> EUSART2_DefaultErrorHandler(), 

    EUSART2_ErrorHandler	PTR FTN()void  size(2) Largest target is 1
		 -> Absolute function(), EUSART2_DefaultErrorHandler(), 

    EUSART2_SetOverrunErrorHandler@interruptHandler	PTR FTN()void  size(2) Largest target is 1
		 -> EUSART2_DefaultOverrunErrorHandler(), 

    EUSART2_OverrunErrorHandler	PTR FTN()void  size(2) Largest target is 1
		 -> Absolute function(), EUSART2_DefaultOverrunErrorHandler(), 

    EUSART2_SetFramingErrorHandler@interruptHandler	PTR FTN()void  size(2) Largest target is 1
		 -> EUSART2_DefaultFramingErrorHandler(), 

    EUSART2_FramingErrorHandler	PTR FTN()void  size(2) Largest target is 1
		 -> Absolute function(), EUSART2_DefaultFramingErrorHandler(), 


Critical Paths under _main in COMRAM

    _cosf->___rem_pio2f
    ___sindf->___flsub
    ___rem_pio2f->___fltol
    ___fltol->___fladd
    ___flsub->___fladd
    ___flneg->___cosdf
    ___cosdf->___fladd
    ___flmul->___fldiv
    ___fladd->___flmul
    ___fldiv->___xxtofl
    _EUSART2_Initialize->_EUSART2_SetErrorHandler
    _EUSART2_Initialize->_EUSART2_SetFramingErrorHandler
    _EUSART2_Initialize->_EUSART2_SetOverrunErrorHandler

Critical Paths under _main in BANK0

    _main->_cosf
    _cosf->___rem_pio2f
    ___sindf->___flneg
    ___rem_pio2f->___flneg
    ___flneg->___cosdf

Critical Paths under _main in BANK1

    None.

Critical Paths under _main in BANK2

    None.

Critical Paths under _main in BANK3

    None.

Critical Paths under _main in BANK4

    None.

Critical Paths under _main in BANK5

    None.

Call Graph Tables:

 ---------------------------------------------------------------------------------
 (Depth) Function   	        Calls       Base Space   Used Autos Params    Refs
 ---------------------------------------------------------------------------------
 (0) _main                                                 9     9      0   58865
                                            102 BANK0      9     9      0
                      _EUSART2_Write
                 _EUSART2_is_tx_done
                  _SYSTEM_Initialize
                            ___fldiv
                            ___flmul
                            ___fltol
                           ___xxtofl
                               _cosf
 ---------------------------------------------------------------------------------
 (1) _cosf                                                38    34      4   51114
                                             64 BANK0     38    34      4
                            ___cosdf
                            ___fladd
                            ___fldiv (ARG)
                            ___flneg
                            ___flsub
                        ___rem_pio2f
                            ___sindf
 ---------------------------------------------------------------------------------
 (2) ___sindf                                             32    28      4   10445
                                             28 BANK0     32    28      4
                            ___fladd
                            ___flmul
                            ___flneg (ARG)
                            ___flsub (ARG)
 ---------------------------------------------------------------------------------
 (2) ___rem_pio2f                                         44    38      6   18277
                                             90 COMRAM     4     4      0
                                             28 BANK0     36    30      6
                            ___fladd
                            ___flmul
                            ___flneg
                            ___flsub
                            ___fltol
                           ___xxtofl
                              _fabsf
 ---------------------------------------------------------------------------------
 (3) _fabsf                                                8     4      4     199
                                              0 COMRAM     8     4      4
 ---------------------------------------------------------------------------------
 (3) ___xxtofl                                            14    10      4     550
                                              0 COMRAM    14    10      4
 ---------------------------------------------------------------------------------
 (3) ___fltol                                             10     6      4     457
                                             80 COMRAM    10     6      4
                            ___fladd (ARG)
                            ___fldiv (ARG)
                            ___flmul (ARG)
                           ___xxtofl (ARG)
 ---------------------------------------------------------------------------------
 (3) ___flsub                                              8     0      8    6081
                                             80 COMRAM     8     0      8
                            ___fladd
                            ___flmul (ARG)
 ---------------------------------------------------------------------------------
 (3) ___flneg                                              4     0      4     425
                                             24 BANK0      4     0      4
                            ___cosdf (ARG)
 ---------------------------------------------------------------------------------
 (2) ___cosdf                                             28    24      4   10302
                                             80 COMRAM     4     0      4
                                              0 BANK0     24    24      0
                            ___fladd
                            ___flmul
 ---------------------------------------------------------------------------------
 (3) ___flmul                                             25    17      8    4936
                                             39 COMRAM    25    17      8
                            ___fldiv (ARG)
                           ___xxtofl (ARG)
 ---------------------------------------------------------------------------------
 (3) ___fladd                                             16     8      8    4694
                                             64 COMRAM    16     8      8
                            ___flmul (ARG)
 ---------------------------------------------------------------------------------
 (1) ___fldiv                                             25    17      8    1399
                                             14 COMRAM    25    17      8
                           ___xxtofl (ARG)
 ---------------------------------------------------------------------------------
 (1) _SYSTEM_Initialize                                    0     0      0     294
                 _EUSART2_Initialize
              _OSCILLATOR_Initialize
             _PIN_MANAGER_Initialize
 ---------------------------------------------------------------------------------
 (2) _PIN_MANAGER_Initialize                               0     0      0       0
 ---------------------------------------------------------------------------------
 (2) _OSCILLATOR_Initialize                                0     0      0       0
 ---------------------------------------------------------------------------------
 (2) _EUSART2_Initialize                                   0     0      0     294
            _EUSART2_SetErrorHandler
     _EUSART2_SetFramingErrorHandler
     _EUSART2_SetOverrunErrorHandler
 ---------------------------------------------------------------------------------
 (3) _EUSART2_SetOverrunErrorHandler                       2     0      2      98
                                              0 COMRAM     2     0      2
 ---------------------------------------------------------------------------------
 (3) _EUSART2_SetFramingErrorHandler                       2     0      2      98
                                              0 COMRAM     2     0      2
 ---------------------------------------------------------------------------------
 (3) _EUSART2_SetErrorHandler                              2     0      2      98
                                              0 COMRAM     2     0      2
 ---------------------------------------------------------------------------------
 (1) _EUSART2_is_tx_done                                   0     0      0       0
 ---------------------------------------------------------------------------------
 (1) _EUSART2_Write                                        1     1      0      22
                                              0 COMRAM     1     1      0
 ---------------------------------------------------------------------------------
 Estimated maximum stack depth 3
 ---------------------------------------------------------------------------------

 Call Graph Graphs:

 _main (ROOT)
   _EUSART2_Write
   _EUSART2_is_tx_done
   _SYSTEM_Initialize
     _EUSART2_Initialize
       _EUSART2_SetErrorHandler
       _EUSART2_SetFramingErrorHandler
       _EUSART2_SetOverrunErrorHandler
     _OSCILLATOR_Initialize
     _PIN_MANAGER_Initialize
   ___fldiv
     ___xxtofl (ARG)
   ___flmul
     ___fldiv (ARG)
       ___xxtofl (ARG)
     ___xxtofl (ARG)
   ___fltol
     ___fladd (ARG)
       ___flmul (ARG)
         ___fldiv (ARG)
           ___xxtofl (ARG)
         ___xxtofl (ARG)
     ___fldiv (ARG)
       ___xxtofl (ARG)
     ___flmul (ARG)
       ___fldiv (ARG)
         ___xxtofl (ARG)
       ___xxtofl (ARG)
     ___xxtofl (ARG)
   ___xxtofl
   _cosf
     ___cosdf
       ___fladd
         ___flmul (ARG)
           ___fldiv (ARG)
             ___xxtofl (ARG)
           ___xxtofl (ARG)
       ___flmul
         ___fldiv (ARG)
           ___xxtofl (ARG)
         ___xxtofl (ARG)
     ___fladd
       ___flmul (ARG)
         ___fldiv (ARG)
           ___xxtofl (ARG)
         ___xxtofl (ARG)
     ___fldiv (ARG)
       ___xxtofl (ARG)
     ___flneg (ARG)
       ___cosdf (ARG)
         ___fladd
           ___flmul (ARG)
             ___fldiv (ARG)
               ___xxtofl (ARG)
             ___xxtofl (ARG)
         ___flmul
           ___fldiv (ARG)
             ___xxtofl (ARG)
           ___xxtofl (ARG)
     ___flsub (ARG)
       ___fladd
         ___flmul (ARG)
           ___fldiv (ARG)
             ___xxtofl (ARG)
           ___xxtofl (ARG)
       ___flmul (ARG)
         ___fldiv (ARG)
           ___xxtofl (ARG)
         ___xxtofl (ARG)
     ___rem_pio2f (ARG)
       ___fladd
         ___flmul (ARG)
           ___fldiv (ARG)
             ___xxtofl (ARG)
           ___xxtofl (ARG)
       ___flmul
         ___fldiv (ARG)
           ___xxtofl (ARG)
         ___xxtofl (ARG)
       ___flneg
         ___cosdf (ARG)
           ___fladd
             ___flmul (ARG)
               ___fldiv (ARG)
                 ___xxtofl (ARG)
               ___xxtofl (ARG)
           ___flmul
             ___fldiv (ARG)
               ___xxtofl (ARG)
             ___xxtofl (ARG)
       ___flsub
         ___fladd
           ___flmul (ARG)
             ___fldiv (ARG)
               ___xxtofl (ARG)
             ___xxtofl (ARG)
         ___flmul (ARG)
           ___fldiv (ARG)
             ___xxtofl (ARG)
           ___xxtofl (ARG)
       ___fltol
         ___fladd (ARG)
           ___flmul (ARG)
             ___fldiv (ARG)
               ___xxtofl (ARG)
             ___xxtofl (ARG)
         ___fldiv (ARG)
           ___xxtofl (ARG)
         ___flmul (ARG)
           ___fldiv (ARG)
             ___xxtofl (ARG)
           ___xxtofl (ARG)
         ___xxtofl (ARG)
       ___xxtofl
       _fabsf
     ___sindf (ARG)
       ___fladd
         ___flmul (ARG)
           ___fldiv (ARG)
             ___xxtofl (ARG)
           ___xxtofl (ARG)
       ___flmul
         ___fldiv (ARG)
           ___xxtofl (ARG)
         ___xxtofl (ARG)
       ___flneg (ARG)
         ___cosdf (ARG)
           ___fladd
             ___flmul (ARG)
               ___fldiv (ARG)
                 ___xxtofl (ARG)
               ___xxtofl (ARG)
           ___flmul
             ___fldiv (ARG)
               ___xxtofl (ARG)
             ___xxtofl (ARG)
       ___flsub (ARG)
         ___fladd
           ___flmul (ARG)
             ___fldiv (ARG)
               ___xxtofl (ARG)
             ___xxtofl (ARG)
         ___flmul (ARG)
           ___fldiv (ARG)
             ___xxtofl (ARG)
           ___xxtofl (ARG)

 Address spaces:
Name               Size   Autos  Total    Cost      Usage
BIGRAM             5FF      0       0      16        0.0%
EEDATA             100      0       0       0        0.0%
BITBANK5           100      0       0      14        0.0%
BANK5              100      0       0      15        0.0%
BITBANK4           100      0       0      12        0.0%
BANK4              100      0       0      13        0.0%
BITBANK3           100      0       0      10        0.0%
BANK3              100      0       0      11        0.0%
BITBANK2           100      0       0       7        0.0%
BANK2              100      0       0       8        0.0%
BITBANK1           100      0       0       5        0.0%
BANK1              100      0       0       6        0.0%
BITBANK0            A0      0       0       3        0.0%
BANK0               A0     6F      7D       4       78.1%
BITCOMRAM           5F      0       0       0        0.0%
COMRAM              5F     5E      5F       1      100.0%
BITSFR_1             0      0       0     200        0.0%
SFR_1                0      0       0     200        0.0%
BITSFR               0      0       0     200        0.0%
SFR                  0      0       0     200        0.0%
STACK                0      0       0       2        0.0%
NULL                 0      0       0       0        0.0%
ABS                  0      0      DC       9        0.0%
DATA                 0      0      DC      17        0.0%
CODE                 0      0       0       0        0.0%


Microchip Technology PIC18 Macro Assembler V2.10 build 88905656 
Symbol Table                                                                                   Wed Jan 01 23:35:55 2020

                                  ___fldiv@aexp 0027                                    ___fldiv@bexp 0026  
                                  ___fldiv@sign 001F                                              _C0 0631  
                                            _C1 062D                                              _C2 0629  
                                            _C3 0625                                              l43 2586  
                                            l70 2622                                              l54 2636  
                                            l67 2610                                              l91 265C  
                                            _S1 060D                                              _S2 0609  
                                            _S3 0605                                              l94 2670  
                                            _S4 0601                                              l88 2666  
                                  __CFG_CP0$OFF 000000                                    __CFG_CP1$OFF 000000  
                                  __CFG_CP2$OFF 000000                                    __CFG_CP3$OFF 000000  
                                   __CFG_LVP$ON 000000                            __size_of___rem_pio2f 0490  
                                           l112 2652                                             l109 2644  
                                           l151 2548                                             l452 25C0  
                                           l801 185E                                             l706 0DCA  
                                           l802 184C                                             l723 0EE4  
                                           l715 109A                                             l707 0DB8  
                                           l475 23D8                                             l732 0FB4  
                                           l708 0D7E                                             l733 0FA2  
                                           l760 1CEE                                             l840 220E  
                                           l809 1916                                             l833 2176  
                                           l762 1B4E                                             l906 211E  
                                           l771 1B94                                             l748 2508  
                                           l836 22D2                                             l924 152A  
                                           l773 1C0C                                             l765 1B12  
                                           l774 1BFA                                             l926 1356  
                                           l870 0BDA                                             l847 226A  
                                           l943 25F4                                             l792 15F0  
                                           l938 1F20                                             l866 0646  
                                           l796 1954                                             l799 17E6  
                                  __CFG_CPB$OFF 000000                                    __CFG_CPD$OFF 000000  
        __end_of_EUSART2_SetFramingErrorHandler 2668         __size_of_EUSART2_SetFramingErrorHandler 000A  
                _EUSART2_SetFramingErrorHandler 265E                                             wreg 000FE8  
                                    _TXSTA2bits 000F72                                    ___flmul@aexp 0039  
                                  ___flmul@bexp 003A                                    ___flmul@sign 0034  
                                  ___flmul@temp 003F                                    ___flmul@prod 003B  
                                  ___fltol@exp1 005A                                            l2001 0F28  
                                          l2011 0F52                                            l2003 0F36  
                                          l2021 0F84                                            l2013 0F62  
                                          l2005 0F38                                            l2101 1610  
                                          l2031 0FDE                                            l2023 0F9A  
                                          l2007 0F46                                            l2015 0F64  
                                          l2111 1650                                            l2041 105A  
                                          l2033 1018                                            l2009 0F4E  
                                          l2017 0F72                                            l2121 169A  
                                          l2113 165C                                            l2105 1624  
                                          l2201 2588                                            l2051 107A  
                                          l2043 105E                                            l2027 0FC4  
                                          l2035 101A                                            l2019 0F76  
                                          l2131 16EC                                            l2123 16A6  
                                          l2115 1674                                            l2107 1630  
                                          l2203 25A0                                            l2211 22EA  
                                          l2061 2654                                            l2053 1088  
                                          l2045 106C                                            l2037 102A  
                                          l2029 0FD0                                            l2141 176A  
                                          l2133 16FC                                            l2125 16B6  
                                          l2117 1680                                            l2109 163A  
                                          l2205 25B0                                            l2221 233A  
                                          l2301 25E2                                            l2063 2668  
                                          l2311 256A                                            l2055 108A  
                                          l2047 1072                                            l2039 103A  
                                          l2151 17E4                                            l2143 17A0  
                                          l2135 1718                                            l2127 16C2  
                                          l2119 168C                                            l2071 1548  
                                          l2231 2364                                            l2223 233E  
                                          l2215 22FE                                            l2303 25E4  
                                          l2313 2576                                            l2321 2524  
                                          l2401 2640                                            l2049 1074  
                                          l2161 1844                                            l2153 17F6  
                                          l2145 17AE                                            l2137 1724  
                                          l2129 16D2                                            l2081 158E  
                                          l2073 1558                                            l2065 152C  
                                          l2241 238C                                            l2233 236E  
                                          l2225 234C                                            l2217 2328  
                                          l2209 22D4                                            l2059 265E  
                                          l2315 2582                                            l2307 254A  
                                          l2323 2526                                            l2171 18B2  
                                          l2155 1804                                            l2147 17CC  
                                          l2139 1740                                            l2091 15BA  
                                          l2083 1594                                            l2075 1568  
                                          l2067 1538                                            l2243 2398  
                                          l2235 2378                                            l2219 232A  
                                          l2411 06CC                                            l2403 0666  
                                          l2309 255E                                            l2325 2546  
                                          l2317 250A                                            l2181 191A  
                                          l2165 186E                                            l2173 18B6  
                                          l2157 1808                                            l2149 17D6  
                                          l2093 15CA                                            l2085 159A  
                                          l2077 1578                                            l2069 1546  
                                          l2245 23A8                                            l2261 219C  
                                          l2253 2122                                            l2341 111A  
                                          l2333 1CF0                                            l2421 0726  
                                          l2405 0696                                            l2327 2646  
                                          l2319 2522                                            l2191 1944  
                                          l2183 192A                                            l2175 18D0  
                                          l2167 187A                                            l2159 1816  
                                          l2095 15DA                                            l2087 15A8  
                                          l2079 157E                                            l2247 23B8  
                                          l2271 21F6                                            l2255 2132  
                                          l2351 11A6                                            l2343 1156  
                                          l2423 0744                                            l2415 06E0  
                                          l2407 0698                                            l2601 1B4C  
                                          l2521 1962                                            l2185 1938  
                                          l2177 18E4                                            l2169 1888  
                                          l2097 15E0                                            l2089 15AA  
                                          l2329 1F22                                            l2249 23C8  
                                          l2281 225A                                            l2273 21F8  
                                          l2265 21B0                                            l2257 2140  
                                          l2361 1304                                            l2353 1212  
                                          l2337 109C                                            l2505 0B7A  
                                          l2425 0756                                            l2409 06B6  
                                          l2611 1B92                                            l2603 1B5E  
                                          l2531 19A2                                            l2523 1970  
                                          l2187 193A                                            l2179 18FE  
                                          l2099 1600                                            l2195 24C4  
                                          l2291 22B2                                            l2283 2278  
                                          l2275 2204                                            l2267 21B8  
                                          l2259 2186                                            l2371 13F2  
                                          l2363 133A                                            l2355 1238  
                                          l2347 1164                                            l2339 10BC  
                                          l2451 08D6                                            l2427 078E  
                                          l2435 07FE                                            l2419 0708  
                                          l2621 1BF2                                            l2605 1B74  
                                          l2613 1BA4                                            l2541 19C8  
                                          l2533 19A4                                            l2525 1972  
                                          l1901 0CCE                                            l2189 1940  
                                          l2197 24D4                                            l2293 22C0  
                                          l2285 227A                                            l2277 2240  
                                          l2269 21C4                                            l2373 1418  
                                          l2357 1290                                            l2349 1182  
                                          l2453 08F4                                            l2437 0810  
                                          l2445 086C                                            l2429 07C2  
                                          l2391 2624                                            l2631 1C60  
                                          l2615 1BB2                                            l2607 1B7A  
                                          l2551 1A08                                            l2543 19D6  
                                          l2527 1982                                            l2535 19AC  
                                          l2519 1956                                            l1911 0CEC  
                                          l1903 0CDC                                            l2295 22C2  
                                          l2287 227E                                            l2279 224C  
                                          l2375 1470                                            l2359 12F0  
                                          l2367 1362                                            l2455 0906  
                                          l2439 0844                                            l2641 1CCA  
                                          l2625 1C1C                                            l2633 1C64  
                                          l2617 1BB6                                            l2609 1B84  
                                          l2561 1A48                                            l2553 1A0A  
                                          l2545 19D8                                            l2537 19BC  
                                          l2529 1992                                            l1921 0D00  
                                          l1913 0CF0                                            l1905 0CE0  
                                          l2289 22A2                                            l2385 150E  
                                          l2377 14C8                                            l2369 1386  
                                          l2481 0A46                                            l2473 09F8  
                                          l2457 093E                                            l2465 099A  
                                          l2449 08B8                                            l2395 2610  
                                          l2643 1CCE                                            l2635 1C7E  
                                          l2627 1C28                                            l2619 1BC4  
                                          l2571 1A78                                            l2563 1A50  
                                          l2547 19E8                                            l2555 1A12  
                                          l2539 19C2                                            l1931 0D14  
                                          l1923 0D04                                            l1915 0CF4  
                                          l1907 0CE4                                            l2299 25C2  
                                          l2379 14DC                                            l2491 0ADA  
                                          l2467 09AC                                            l2459 0972  
                                          l2397 261E                                            l2645 1CDC  
                                          l2637 1C94                                            l2629 1C36  
                                          l2581 1AB6                                            l2573 1A78  
                                          l2565 1A54                                            l2557 1A22  
                                          l2549 19F8                                            l1941 0D66  
                                          l1933 0D18                                            l1925 0D08  
                                          l1917 0CF8                                            l1909 0CE8  
                                          l1861 0BF6                                            l2741 0BAE  
                                          l2485 0A7E                                            l2661 23DE  
                                          l2399 2638                                            l2647 1CE2  
                                          l2639 1CAE                                            l2591 1B02  
                                          l2583 1AC6                                            l2559 1A38  
                                          l1951 0DAA                                            l1943 0D76  
                                          l1927 0D0C                                            l1919 0CFC  
                                          l1935 0D1C                                            l1871 0C2A  
                                          l1863 0BF8                                            l2495 0B16  
                                          l2487 0AB2                                            l2479 0A30  
                                          l2671 249E                                            l2663 23E4  
                                          l2649 1CE4                                            l2593 1B10  
                                          l2585 1AD6                                            l2577 1A8C  
                                          l2569 1A68                                            l1953 0DAC  
                                          l1945 0D8C                                            l1937 0D20  
                                          l1929 0D10                                            l1881 0C5C  
                                          l1865 0C08                                            l1873 0C32  
                                          l1857 0BDC                                            l2737 0BA0  
                                          l2673 24A4                                            l2665 242A  
                                          l2595 1B1C                                            l2587 1ADE  
                                          l2579 1AA6                                            l1971 0E34  
                                          l1963 0DFC                                            l1955 0DB6  
                                          l1947 0D98                                            l1939 0D4A  
                                          l1891 0C92                                            l1883 0C62  
                                          l1875 0C42                                            l1867 0C18  
                                          l1859 0BE8                                            l2739 0BCC  
                                          l2499 0B52                                            l2675 24A8  
                                          l2667 244E                                            l2659 23DA  
                                          l2597 1B3A                                            l2589 1AEE  
                                          l1973 0E38                                            l1965 0E0C  
                                          l1957 0DD8                                            l1981 0E58  
                                          l1949 0D9C                                            l1893 0CA2  
                                          l1885 0C70                                            l1877 0C48  
                                          l1869 0C28                                            l2669 248C  
                                          l2599 1B3C                                            l1983 0E7E  
                                          l1991 0ED4                                            l1975 0E46  
                                          l1967 0E1A                                            l1959 0DE8  
                                          l1895 0CA4                                            l1887 0C72  
                                          l1879 0C5A                                            l1993 0EFA  
                                          l1985 0EB2                                            l1977 0E48  
                                          l1969 0E28                                            l1889 0C82  
                                          l1897 0CAC                                            l1995 0F0A  
                                          l1987 0EB4                                            l1979 0E52  
                                          l1899 0CBC                                            l1989 0EC4  
                                          l1999 0F1E                                            u2000 22C0  
                                          u2001 22BC                                            u2010 10DC  
                                          u1300 0C82                                            u2020 111A  
                                          u2100 06CC                                            u1301 0C7E  
                                          u2021 1116                                            u2101 06C8  
                                          u1310 0C92                                            u2030 1182  
                                          u2110 0726                                            u1311 0C8E  
                                          u2031 117E                                            u2015 10D2  
                                          u2111 0722                                            u2200 1970  
                                          u1400 0DD8                                            u1320 0CCE  
                                          u2040 1304                                            u2120 0744  
                                          u2201 196C                                            u1401 0DD4  
                                          u1321 0CCA                                            u2041 1300  
                                          u2121 0740                                            u2210 1982  
                                          u1410 0DE8                                            u1330 0CDC  
                                          u1250 0BF6                                            u2050 14DC  
                                          u2130 0756                                            u2211 197E  
                                          u1411 0DE4                                            u1331 0CD8  
                                          u1251 0BF2                                            u2051 14D8  
                                          u2131 0752                                            u2060 2634  
                                          u2300 1B3A                                            u2220 1992  
                                          u1500 0F46                                            u1420 0E1A  
                                          u1340 0D4A                                            u1260 0C08  
                                          u2140 0810                                            u2061 262E  
                                          u2301 1B36                                            u2221 198E  
                                          u1501 0F42                                            u1421 0E16  
                                          u1341 0D46                                            u1261 0C04  
                                          u2141 080C                                            _LATA 000F89  
                                          u2070 261E                                            u2310 1B5E  
                                          u2230 19D6                                            u1510 0F62  
                                          u1430 0E28                                            u1350 0D62  
                                          u1270 0C18                                            u2150 08D6  
                                          _LATB 000F8A                                            u2071 261A  
                                          u2311 1B5A                                            u2231 19D2  
                                          u1511 0F5E                                            u1431 0E24  
                                          u1351 0D5C                                            u1271 0C14  
                                          u2151 08D2                                            _LATC 000F8B  
                                          u2400 1C7E                                            u2320 1B74  
                                          u2240 19E8                                            u1600 103A  
                                          u1520 0F72                                            u1440 0E46  
                                          u1360 0D64                                            u1280 0C5A  
                                          u2160 08F4                                            u2080 0688  
                                          _LATD 000F8C                                            u2401 1C7A  
                                          u2321 1B70                                            u2241 19E4  
                                          u1601 1036                                            u1521 0F6E  
                                          u1441 0E42                                            u1281 0C56  
                                          u2161 08F0                                            _LATE 000F8D  
                                          u2066 2636                                            u2410 1CAE  
                                          u2330 1B92                                            u2250 19F8  
                                          u1610 105A                                            u1530 0F84  
                                          u1450 0E7E                                            u1370 0D8C  
                                          u1290 0C70                                            u2170 0906  
                                          u2090 06B6                                            u2411 1CAA  
                                          u2331 1B8E                                            u2251 19F4  
                                          u1611 1056                                            u1531 0F80  
                                          u1451 0E7A                                            u1371 0D88  
                                          u1291 0C6C                                            u2171 0902  
                                          u2091 06B2                                            u2420 1CDC  
                                          u2340 1BB2                                            u2260 1A38  
                                          u1620 106C                                            u1540 0F9A  
                                          u1460 0EC4                                            u1380 0DAA  
                                          u1700 1600                                            u2180 09AC  
                                          u2421 1CD8                                            u2341 1BAE  
                                          u2261 1A34                                            u1621 1068  
                                          u1541 0F96                                            u1461 0EC0  
                                          u1381 0DA6                                            u1701 15FC  
                                          u2181 09A8                                            u2085 067C  
                                          u2350 1BC4                                            u2270 1A78  
                                          u1630 1088                                            u1550 0FB0  
                                          u1470 0EFA                                            u1390 0DCA  
                                          u1710 1610                                            u2190 0A46  
                                          u2430 249E                                            u2351 1BC0  
                                          u2271 1A74                                            u1631 1084  
                                          u1551 0FAC                                            u1471 0EF6  
                                          u1391 0DC6                                            u1711 160C  
                                          u2191 0A42                                            u2431 249A  
                                          u2360 1BF2                                            u2280 1AEE  
                                          u1560 0FC4                                            u1480 0F0A  
                                          u1800 18D0                                            u1720 178A  
                                          u1640 1546                                            u2440 24BC  
                                          u2361 1BEE                                            u2281 1AEA  
                                          u1561 0FC0                                            u1481 0F06  
                                          u1801 18CC                                            u1641 1542  
                                          u2441 24B8                                            u2370 1C08  
                                          u2290 1B10                                            u1570 0FDE  
                                          u1490 0F36                                            u1810 18FE  
                                          u1730 17E4                                            u1650 1558  
                                          u2371 1C04                                            u2291 1B0C  
                                          u1571 0FDA                                            u1491 0F32  
                                          u1811 18FA                                            u1731 17E0  
                                          u1651 1554                                            u2380 1C1C  
                                          u1580 1018                                            u1820 1938  
                                          u1740 1804                                            u1660 1568  
                                          u1900 23B8                                            u2381 1C18  
                                          u1581 1014                                            u1821 1934  
                                          u1741 1800                                            u1725 1780  
                                          u1661 1564                                            u1901 23B4  
                                          u2390 1C36                                            u1590 102A  
                                          u1750 1816                                            u1670 15A8  
                                          u1830 25A0                                            u1910 2132  
                                          u2391 1C32                                            u1591 1026  
                                          u1751 1812                                            u1671 15A4  
                                          u1831 259C                                            u1911 212E  
                                          u1760 1844                                            u1680 15BA  
                                          u1840 22EA                                            u1920 2140  
                                          u1761 1840                                            u1681 15B6  
                                          u1841 22E6                                            u1921 213C  
                                          u1770 185A                                            u1690 15CA  
                                          u1850 231E                                            u1930 219C  
                                          u1771 1856                                            u1691 15C6  
                                          u1931 2198                                            u1780 186E  
                                          u1860 234C                                            u1940 21F2  
                                          u1781 186A                                            u1861 2348  
                                          u1941 21EE                                            u1790 1888  
                                          u1870 2360                                            u1950 223C  
                                          u1791 1884                                            u1871 235C  
                                          u1855 2314                                            u1951 2238  
                                          u1880 2388                                            u1960 225A  
                                          u1881 2384                                            u1961 2256  
                                          u1890 23A8                                            u1970 226A  
                                          u1891 23A4                                            u1971 2266  
                                          u1980 2278                                            u1981 2274  
                                          u1990 22B2                                            u1991 22AE  
                                          _WPUB 000F61                                   _EUSART2_Write 260E  
                                          _half 061D                                            _cosf 0646  
                                          _main 23DA                                            fsr2h 000FDA  
                                          fsr2l 000FD9                                   __CFG_BORV$190 000000  
                                          prodh 000FF4                                            prodl 000FF3  
                                          start 0000                                   __CFG_IESO$OFF 000000  
                               ___fldiv@new_exp 0020                                    ___param_bank 000000  
                __size_of_OSCILLATOR_Initialize 000E                   __end_of_OSCILLATOR_Initialize 2654  
                                 ___fltol@sign1 0059                                           ?_cosf 00A0  
                               __end_of___fladd 109C                                           ?_main 0001  
                               __end_of___fldiv 1CF0                                 __end_of___cosdf 2120  
                               __end_of___flneg 25C2                                 __end_of___flmul 1956  
                               __end_of___flsub 250A                                 __end_of___fltol 23DA  
                                __CFG_DEBUG$OFF 000000                                 __end_of___sindf 1F22  
                                  ___sindf$1166 0088                                    ___sindf$1167 008C  
                                  ___sindf$1168 0090                                           _TRISA 000F92  
                                         _TRISB 000F93                                           _TRISC 000F94  
                                         _TRISD 000F95                                           _TRISE 000F96  
                                 __CFG_WRT0$OFF 000000                                   __CFG_WRT1$OFF 000000  
                                 __CFG_WRT2$OFF 000000                                   __CFG_WRT3$OFF 000000  
                                __CFG_EBTR0$OFF 000000                                  __CFG_FCMEN$OFF 000000  
                                __CFG_EBTR1$OFF 000000                                  __CFG_EBTR2$OFF 000000  
                                __CFG_EBTR3$OFF 000000                                   __CFG_WRTB$OFF 000000  
                                 __CFG_WRTC$OFF 000000                                   __CFG_WRTD$OFF 000000  
                               __end_of_pio2_1t 0615                                           _fabsf 25C2  
                                __CFG_EBTRB$OFF 000000                              __CFG_MCLRE$EXTMCLR 000000  
                                         cosf@n 00A8                                           cosf@x 00A0  
                                         cosf@y 00BE                                 __end_of_invpio2 061D  
                                         _toint 0621                                  ?_EUSART2_Write 0001  
                                         status 000FD8                                  __CFG_HFOFST$ON 000000  
                   __size_of_EUSART2_is_tx_done 0014                                  __CFG_PBADEN$ON 000000  
                               __initialization 25F6                                    __end_of_half 0621  
                                  __end_of_cosf 0BDC                                    __end_of_main 24C4  
                                        ??_cosf 00A4                                          ??_main 005F  
                                 __activetblptr 000002                     _EUSART2_DefaultErrorHandler 000000  
                                        ?_fabsf 0001                      __end_of_EUSART2_Initialize 2588  
                                        _ANSELA 000F38                                          _ANSELB 000F39  
                                        _ANSELC 000F3A                                          _ANSELD 000F3B  
                                        _ANSELE 000F3C                                  __CFG_WDTEN$OFF 000000  
                                        _RCREG2 000F74                                          _RCSTA2 000F71  
                                 ___rem_pio2f@n 009C                                   ___rem_pio2f@t 0098  
                                 ___rem_pio2f@u 008C                                   ___rem_pio2f@x 007C  
                                 ___rem_pio2f@y 0080                                          _OSCCON 000FD3  
                                        _SPBRG2 000F75                                          _TXREG2 000F73  
                              __end_of___xxtofl 22D4                                          _TXSTA2 000F72  
                          cosf@__xc8_float_word 00AC                                          _c1pio2 0641  
                                        _c2pio2 063D                                          _c3pio2 0639  
                                        _c4pio2 0635                                  __CFG_XINST$OFF 000000  
                                     ??___fladd 0049                                       ??___fldiv 0017  
                                     ??___cosdf 0055                                       ??___flneg 0055  
                                __CFG_STVREN$ON 000000                                       ??___flmul 0030  
                                     ??___flsub 0059                                       ??___fltol 0055  
                                     ??___sindf 0059                                          _pio2_1 0615  
                                        fabsf@u 0005                                          fabsf@x 0001  
                                        clear_0 25FC                     _EUSART2_FramingErrorHandler 00DB  
                                        cosf@ix 00C2                                    __mediumconst 0000  
                                        tblptru 000FF8                                 ??_EUSART2_Write 0001  
                                  ___xxtofl@arg 000B                                    ___xxtofl@exp 000A  
                             _SYSTEM_Initialize 2638                                    ___xxtofl@val 0001  
                                    __accesstop 0060                         __end_of__initialization 2604  
                                    ___flneg@f1 0078                              ?_SYSTEM_Initialize 0001  
                                 ___rparam_used 000001                                      ___fltol@f1 0051  
                                __pcstackCOMRAM 0001                             ??_SYSTEM_Initialize 0003  
                                 __end_of_fabsf 25F6                                   __end_of_toint 0625  
                                    __end_of_C0 0635                                      __end_of_C1 0631  
                                    __end_of_C2 062D                                      __end_of_C3 0629  
                                    __end_of_S1 0611                                      __end_of_S2 060D  
                                    __end_of_S3 0609                                      __end_of_S4 0605  
                      ?_EUSART2_SetErrorHandler 0001                                         ??_fabsf 0005  
                     __end_of_SYSTEM_Initialize 2646                                      __pbssBANK0 00CF  
                               __CFG_PLLCFG$OFF 000000                ??_EUSART2_SetFramingErrorHandler 0003  
               ?_EUSART2_SetFramingErrorHandler 0001                              __CFG_CCP2MX$PORTC1 000000  
                            __CFG_CCP3MX$PORTB5 000000                                   ??___rem_pio2f 005B  
                                     ?___xxtofl 0001                                         _OSCCON2 000FD2  
                                ___rem_pio2f@fn 0094                                  ___rem_pio2f@ix 0086  
                                ___rem_pio2f@ty 0082                                         _OSCTUNE 000F9B  
                                       _SPBRGH2 000F76                                 __CFG_PWRTEN$OFF 000000  
                                       __Hparam 0000                                         __Lparam 0000  
                                       ___fladd 0BDC                                         ___fldiv 1956  
                                       ___cosdf 1F22                                         ___flneg 2588  
                                       ___flmul 152C                                         ___flsub 24C4  
                                       ___fltol 22D4                                         ___sindf 1CF0  
                                  __psmallconst 0600                                         __pcinit 25F6  
               __end_of_EUSART2_SetErrorHandler 2672                                         __ramtop 0600  
                                       __ptext0 23DA                                         __ptext1 0646  
                                       __ptext2 1CF0                                         __ptext3 109C  
                                       __ptext4 25C2                                         __ptext5 2120  
                                       __ptext6 22D4                                         __ptext7 24C4  
                                       __ptext8 2588                                         __ptext9 1F22  
                                       _pio2_1t 0611              _EUSART2_DefaultOverrunErrorHandler 000000  
                         _OSCILLATOR_Initialize 2646                                      ??___xxtofl 0005  
                           __end_of___rem_pio2f 152C                                         _invpio2 0619  
                      ??_PIN_MANAGER_Initialize 0001                      __size_of_SYSTEM_Initialize 000E  
                              ___rem_pio2f$1165 0090                            end_of_initialization 2604  
                    __end_of_EUSART2_is_tx_done 2638                                ___rem_pio2f@F530 00D3  
                                 __Lmediumconst 0000                                ___rem_pio2f@sign 008A  
                            _EUSART2_Initialize 254A                                         postinc0 000FEE  
                                       postinc2 000FDE                             ?_EUSART2_Initialize 0001  
                                   ___fladd@grs 0050                                   ___xxtofl@sign 0009  
                                   ___fldiv@grs 0022                                     ___fldiv@rem 001B  
                          ??_EUSART2_Initialize 0003                                     ___flmul@grs 0035  
                                __end_of_c1pio2 0645                                  __end_of_c2pio2 0641  
                                __end_of_c3pio2 063D                                  __end_of_c4pio2 0639  
                                   ___rem_pio2f 109C                                  __end_of_pio2_1 0619  
                        ?_OSCILLATOR_Initialize 0001                             start_initialization 25F6  
               __size_of_PIN_MANAGER_Initialize 0040                           __end_of_EUSART2_Write 2624  
              __size_of_EUSART2_SetErrorHandler 000A          __end_of_EUSART2_SetOverrunErrorHandler 265E  
       __size_of_EUSART2_SetOverrunErrorHandler 000A                  _EUSART2_SetOverrunErrorHandler 2654  
                                     ___fladd@a 0045                                       ___fladd@b 0041  
                                     ___fldiv@a 0013                                       ___fldiv@b 000F  
                                     ___cosdf@r 0060                                       ___cosdf@w 0070  
                                     ___cosdf@x 0051                                       ___cosdf@z 0074  
                                     ___flmul@a 002C                                       ___flmul@b 0028  
                                   __pbssCOMRAM 005F                                       ___flsub@a 0055  
                                     ___flsub@b 0051                                   __pcstackBANK0 0060  
                             __size_of___xxtofl 01B4                                       ___sindf@r 0080  
                                     ___sindf@s 0094                                       ___sindf@w 0084  
                                     ___sindf@x 007C                                       ___sindf@z 0098  
                           EUSART2_Write@txData 0001                                       _cosf$1161 00B8  
                                     __pnvBANK0 00D7                                       _main$1160 00CA  
                                     _main$1159 00C6                          _PIN_MANAGER_Initialize 250A  
                                      ?___fladd 0041                                        ?___fldiv 000F  
                                      ?___cosdf 0051                                        ?___flneg 0078  
                                      ?___flmul 0028                                        ?___flsub 0051  
                                      ?___fltol 0051                                        ?___sindf 007C  
                              __CFG_PRICLKEN$ON 000000                                       fabsf@F463 00CF  
                                   __smallconst 0600                                        _BAUDCON2 000F70  
                                __size_of_fabsf 0034         EUSART2_SetErrorHandler@interruptHandler 0001  
                                      _PIR3bits 000FA4                                __CFG_WDTPS$32768 000000  
                            _EUSART2_is_tx_done 2624                             ?_EUSART2_is_tx_done 0001  
                                   _INTCON2bits 000FF1                         _EUSART2_SetErrorHandler 2668  
                   _EUSART2_OverrunErrorHandler 00D9                            ??_EUSART2_is_tx_done 0001  
                                      __Hrparam 0000                                        __Lrparam 0000  
                            __CFG_BOREN$SBORDIS 000000                               __CFG_P2BMX$PORTD2 000000  
                       ??_OSCILLATOR_Initialize 0001                                __size_of___fladd 04C0  
                              __size_of___fldiv 039A                                __size_of___cosdf 01FE  
                              __size_of___flneg 003A                                    ?___rem_pio2f 007C  
                              __size_of___flmul 042A                                __size_of___flsub 0046  
                              __size_of___fltol 0106                                __size_of___sindf 0232  
                                      ___xxtofl 2120                                        _cosf$897 00B0  
                                      _cosf$898 00B4                            _EUSART2_ErrorHandler 00D7  
                                      __ptext10 152C                                        __ptext11 0BDC  
                                      __ptext20 2624                                        __ptext12 1956  
                                      __ptext21 260E                                        __ptext13 2638  
                                      __ptext14 250A                                        __ptext15 2646  
                                      __ptext16 254A                                        __ptext17 2654  
                                      __ptext18 265E                                        __ptext19 2668  
                   __size_of_EUSART2_Initialize 003E                                   __size_of_cosf 0596  
                                 __size_of_main 00EA              _EUSART2_DefaultFramingErrorHandler 000000  
EUSART2_SetOverrunErrorHandler@interruptHandler 0001                                        cosf@sign 00BC  
                                      main@data 00CE                ??_EUSART2_SetOverrunErrorHandler 0003  
               ?_EUSART2_SetOverrunErrorHandler 0001                                      _INTCONbits 000FF2  
                     ??_EUSART2_SetErrorHandler 0003                         ?_PIN_MANAGER_Initialize 0001  
                                    _RCSTA2bits 000F71  EUSART2_SetFramingErrorHandler@interruptHandler 0001  
                        __size_of_EUSART2_Write 0016                               __CFG_T3CMX$PORTC0 000000  
                                 ___fladd@signs 004D                  __end_of_PIN_MANAGER_Initialize 254A  
                            _eusart2RxLastError 005F                                    ___fladd@aexp 004E  
                                  ___fladd@bexp 004F                               __CFG_FOSC$INTIO67 000000  
                                  ___cosdf$1162 0064                                    ___cosdf$1163 0068  
                                  ___cosdf$1164 006C  
